(dp0
I0
F0.2567160112253792
sI1
F0.22843383354899474
sI3
F0.22352691685132622
sI5
F0.5119450796055451
sI7
F0.5146490803357668
sI9
F0.23711284595930876
sI11
F0.6027473046960288
sI14
F0.4258223376942145
sI15
F0.6624625656813782
sI16
F0.47412250089515295
sI19
F0.548721971479646
sI21
F0.4984951422768229
sI22
F0.4898570549332246
sI27
F0.19213088993864555
sI29
F0.5098979070510772
sI32
F0.4995
sI33
F0.5097792016345501
sI34
F0.5
sI38
F0.5
sI42
F0.5
sI44
F0.5
sI45
F0.5116222445233454
sI46
F0.507186
sI48
F0.4995
sI50
F0.5
sI52
F0.5
sI55
F0.584660253824812
sI57
F0.6391139328190503
sI58
F0.5
sI63
F0.6092335647204415
sI64
F0.6635735866941624
sI66
F0.505
sI68
F0.5
sI70
F0.691461706342359
sI76
F0.5
sI81
F0.23325899060858518
sI83
F0.5152912327187249
sI86
F0.512601602480125
sI87
F0.6737794398757928
sI88
F0.5228474128174864
sI92
F0.5
sI96
F0.505
sI98
F0.55
sI99
F0.22174934480351843
sI100
F0.17696957316407289
sI102
F0.1766215279524297
sI104
F0.9641051006154073
sI106
F0.82566077995
sI110
F0.508065926455895
sI114
F0.505
sI116
F0.55
sI125
F0.505
sI126
F0.2380277393431972
sI128
F0.8587852317595001
sI131
F0.505
sI132
F0.8970544339526756
sI133
F0.505
sI135
F0.6860148205391923
sI136
F0.5
sI138
F0.7406068262695409
sI140
F0.7608515499999999
sI142
F0.55
sI144
F0.5095000000000001
sI146
F0.5
sI149
F0.5
sI150
F0.55
sI151
F0.5
sI154
F0.7608515499999999
sI156
F0.9392116727047154
sI157
F0.5
sI163
F0.20474906313412122
sI165
F0.18834414304458752
sI166
F0.1749743037960655
sI171
F0.2088781636641041
sI172
F0.1482156971408014
sI174
F0.13856369865046014
sI176
F0.1348616791130443
sI178
F0.1503477340796733
sI184
F0.10776529394117706
sI189
F0.17843853266119175
sI190
F0.15040263079137287
sI192
F0.15008472229902756
sI194
F0.4959251005063096
sI196
F0.7342795
sI198
F0.1453229324282179
sI200
F0.4971142463328884
sI203
F0.10425833014728722
sI204
F0.5
sI205
F0.114383962274805
sI208
F0.67195
sI210
F0.12397413990158344
sI211
F0.054709494565756175
sI220
F0.67195
sI226
F0.704755
sI228
F0.5950000000000001
sI229
F1.0
sI243
F0.22522037541705506
sI245
F0.5203246674606543
sI248
F0.4986129366396
sI249
F0.6541802228378097
sI250
F0.5
sI254
F0.5262229595808745
sI258
F0.5
sI260
F0.5
sI261
F0.5004580497124305
sI262
F0.497557
sI264
F0.46680792128776677
sI266
F0.5
sI268
F0.5
sI272
F0.5040519600896264
sI276
F0.5118683264955001
sI278
F0.55
sI287
F0.5
sI288
F0.49735226474886485
sI290
F0.55
sI293
F0.5
sI294
F0.55
sI295
F0.5
sI297
F0.5207097300979545
sI298
F0.5
sI300
F0.5
sI302
F0.5
sI304
F0.5
sI306
F0.5
sI308
F0.55
sI311
F0.5
sI312
F0.5
sI313
F0.5
sI316
F0.5
sI318
F0.5
sI319
F0.5
sI326
F0.4928802944081925
sI330
F0.7421823028674139
sI332
F0.7847663949999999
sI341
F0.5
sI342
F0.23062835189589848
sI344
F0.9964651747549245
sI347
F0.5180500000000001
sI348
F0.9788044208623918
sI349
F0.5221
sI359
F1.0
sI371
F1.0
sI375
F1.0
sI378
F0.4662305807538327
sI380
F0.47108359281533574
sI383
F0.405
sI384
F0.7550252802658114
sI385
F0.50455
sI389
F0.45
sI393
F0.8127168343328492
sI395
F0.843094701955
sI396
F0.18528642597801676
sI397
F0.12682035781703246
sI399
F0.13843798847355918
sI401
F0.7342795
sI403
F0.9507614548908194
sI405
F0.2045727618672094
sI406
F0.18220145612232147
sI408
F0.16571098091989656
sI410
F0.48305579505075
sI412
F0.4940835205761464
sI414
F0.20567694819057267
sI416
F0.9507614548908194
sI419
F0.10397502170779775
sI420
F0.9809239787761527
sI421
F0.08902757970430905
sI424
F0.46340630857226445
sI426
F0.13394792966941554
sI427
F0.0675604120641588
sI432
F0.12148314635100635
sI434
F0.48753403188411604
sI437
F0.36450000000000005
sI438
F0.492508532655
sI439
F0.405
sI443
F0.405
sI447
F0.405
sI449
F0.5
sI450
F0.464887690978072
sI451
F0.36450000000000005
sI453
F0.08629329242589073
sI455
F0.5
sI457
F0.5
sI460
F0.5246830564865667
sI462
F0.5064265
sI463
F0.49748756829736335
sI468
F0.9452905054342439
sI469
F0.587938658545
sI471
F0.52939
sI473
F0.5950000000000001
sI475
F0.67195
sI481
F0.43740926021696297
sI487
F0.5126279931056268
sI489
F0.5077490002747415
sI490
F0.5045807425923963
sI495
F0.5607720524268799
sI496
F0.524287
sI498
F0.5
sI500
F0.5
sI502
F0.5014
sI508
F0.48516978929577703
sI513
F0.50799928477283
sI514
F0.5
sI516
F0.5
sI518
F0.5
sI520
F0.5
sI522
F0.5000005
sI524
F0.5
sI527
F0.5
sI528
F0.5
sI529
F0.5
sI532
F0.55
sI534
F0.5
sI535
F0.44955
sI544
F0.55
sI550
F0.704755
sI552
F0.55
sI553
F1.0
sI567
F0.786971195143972
sI568
F0.5
sI570
F0.51109934597245
sI572
F0.5950000000000001
sI574
F0.55
sI576
F0.5964467110384739
sI578
F0.6355000000000001
sI581
F0.5
sI582
F0.6355000000000001
sI583
F0.5180500000000001
sI586
F0.67195
sI588
F0.9324574141163504
sI589
F0.45
sI594
F0.5
sI596
F0.49897509940778695
sI599
F0.493104220410253
sI600
F0.5
sI601
F0.5
sI605
F0.4925322486131277
sI609
F0.5
sI611
F0.5950000000000001
sI612
F0.247335374554178
sI613
F0.11131107266574758
sI615
F0.0228848589502574
sI617
F0.55
sI619
F0.55
sI622
F0.5
sI624
F0.7608515499999999
sI625
F0.5
sI630
F0.6355000000000001
sI631
F0.505
sI633
F0.5
sI635
F0.5
sI637
F0.55
sI643
F0.5
sI652
F0.82566077995
sI658
F0.6355000000000001
sI660
F0.6355000000000001
sI661
F1.0
sI676
F0.5
sI678
F0.5148916885
sI679
F0.5485631050000002
sI684
F0.500030695
sI685
F0.5
sI687
F0.505
sI689
F0.5
sI691
F0.5
sI697
F0.5950000000000001
sI729
F0.21333278653328921
sI731
F0.578909477866103
sI734
F0.49912694999999996
sI735
F0.5132629215440708
sI736
F0.5
sI740
F0.6581863983811943
sI744
F0.5
sI746
F0.704755
sI747
F0.5124015724064808
sI748
F0.520236579231983
sI750
F0.49954095000000004
sI752
F0.5005
sI754
F0.55
sI758
F0.4995
sI762
F0.5
sI764
F0.5
sI773
F0.5
sI774
F0.5
sI776
F0.5
sI779
F0.5
sI780
F0.5
sI781
F1.0
sI783
F0.5453285184621355
sI784
F0.4995
sI786
F0.4991005
sI788
F0.5005
sI790
F0.5
sI792
F0.5
sI794
F0.67195
sI797
F0.5
sI798
F0.5
sI799
F0.5
sI802
F0.5347602241799234
sI804
F0.5
sI805
F0.4670511858754949
sI812
F0.5015295686189404
sI816
F0.505
sI818
F0.5
sI827
F1.0
sI828
F0.17362674762063404
sI830
F0.1353535866864438
sI833
F0.15505759428715712
sI834
F0.50715469
sI835
F0.5315729499999999
sI845
F0.5
sI857
F0.08307621039010459
sI861
F0.5
sI863
F0.0
sI864
F0.505
sI866
F0.55
sI869
F0.5
sI870
F0.55
sI871
F0.5
sI875
F1.0
sI879
F1.0
sI882
F0.507176435674051
sI883
F0.498002355340862
sI885
F0.5041871834574899
sI887
F0.7342795
sI889
F0.5950000000000001
sI891
F0.18787463328452905
sI892
F0.15735662987585955
sI894
F0.16492667708189562
sI896
F0.4761095116529714
sI898
F0.6355000000000001
sI900
F0.14539727997366242
sI902
F0.6774726821011536
sI905
F0.09265100944259205
sI906
F0.498562897555
sI907
F0.11643461820012609
sI910
F0.7847663949999999
sI912
F0.33160799426159054
sI913
F0.10278658697433492
sI918
F0.1550893063864008
sI920
F0.12210753853630028
sI923
F0.10800754948912532
sI924
F0.704755
sI925
F1.0
sI929
F0.10294556604732451
sI933
F0.45
sI935
F0.5
sI936
F0.6355000000000001
sI937
F1.0
sI939
F0.12759035247986644
sI941
F0.1268191492906792
sI946
F0.14370831748451865
sI948
F0.13331235466917807
sI949
F0.10294556604732451
sI954
F0.49498874090999995
sI955
F0.14204391538364963
sI957
F0.10957522990267002
sI959
F0.5
sI961
F0.486
sI967
F0.10115073326660615
sI974
F0.4995
sI978
F0.4995
sI980
F0.5
sI989
F0.5
sI990
F0.4962292193508355
sI992
F0.48123469519305434
sI995
F0.4248219687775347
sI996
F0.5
sI997
F0.5
sI1007
F0.5
sI1019
F0.45
sI1023
F0.5
sI1025
F0.0
sI1026
F0.50005073305
sI1028
F0.5
sI1031
F0.5
sI1032
F0.5
sI1033
F0.5
sI1037
F0.5
sI1041
F0.5
sI1043
F0.5
sI1044
F0.5
sI1045
F0.499996
sI1047
F0.5
sI1049
F0.5
sI1051
F0.5
sI1061
F0.45
sI1073
F0.10397797129339327
sI1077
F0.5
sI1079
F0.0
sI1109
F0.4285542707120262
sI1113
F0.5024674431065274
sI1115
F0.55
sI1124
F1.0
sI1125
F0.11591551041509993
sI1127
F0.1132696185080121
sI1130
F0.10296014186220513
sI1131
F0.10761285058372616
sI1132
F0.10150193299458889
sI1134
F0.18978599513290656
sI1136
F0.5078936125
sI1139
F0.45
sI1140
F0.4912307102485153
sI1141
F0.405
sI1145
F0.36450000000000005
sI1149
F0.41400000000000003
sI1151
F0.5
sI1152
F0.4818541031851685
sI1153
F0.40085547636795127
sI1155
F0.1494182606593788
sI1157
F0.10318649914084056
sI1159
F0.55
sI1163
F0.09596814434856141
sI1167
F0.45
sI1169
F0.5
sI1178
F0.5
sI1179
F0.39950164417979656
sI1181
F0.29424127522893395
sI1184
F0.03230540944613336
sI1185
F0.5950000000000001
sI1186
F1.0
sI1188
F0.5005117405
sI1189
F0.12813764227637053
sI1191
F0.1178977143904237
sI1193
F0.505621039905574
sI1195
F0.43554854361913947
sI1197
F0.496053558
sI1199
F0.5
sI1202
F0.5
sI1203
F0.55
sI1204
F0.36450000000000005
sI1207
F0.26484452257449254
sI1209
F0.48764147676158337
sI1210
F0.10040221218785936
sI1215
F0.5937336435558448
sI1216
F0.5
sI1218
F0.4995
sI1220
F0.5
sI1222
F0.5
sI1224
F0.5
sI1226
F0.704755
sI1229
F0.5
sI1230
F0.5
sI1231
F0.5
sI1234
F0.55
sI1236
F0.495
sI1237
F0.45
sI1242
F0.5099844962361318
sI1244
F0.5030921765464683
sI1247
F0.5
sI1248
F0.55
sI1249
F1.0
sI1253
F0.4994191368829
sI1257
F0.5
sI1259
F0.5
sI1260
F0.55
sI1261
F1.0
sI1263
F0.5
sI1265
F0.5
sI1270
F0.5
sI1272
F0.5
sI1273
F0.5
sI1278
F0.5
sI1279
F0.5
sI1281
F0.5
sI1283
F0.5
sI1285
F0.5
sI1291
F0.5005
sI1296
F0.8059560266401374
sI1298
F0.8062897554999999
sI1301
F0.505
sI1302
F0.82566077995
sI1303
F0.5
sI1307
F1.0
sI1311
F1.0
sI1314
F0.8460147946576535
sI1315
F0.45
sI1317
F0.405
sI1319
F0.7342795
sI1321
F0.55
sI1325
F0.4930956
sI1329
F0.5
sI1331
F0.55
sI1340
F1.0
sI1341
F0.033752047885200705
sI1343
F0.456354
sI1346
F0.36450000000000005
sI1347
F0.5950000000000001
sI1348
F1.0
sI1350
F0.7847663949999999
sI1351
F0.5
sI1353
F0.5
sI1355
F0.5
sI1357
F0.5
sI1359
F1.0
sI1364
F1.0
sI1366
F1.0
sI1369
F0.5
sI1371
F0.55
sI1372
F0.505
sI1378
F0.5950000000000001
sI1380
F0.19600348086520536
sI1381
F0.11906036767705781
sI1386
F0.499985062795
sI1387
F0.5
sI1389
F0.05301304244558007
sI1391
F0.495
sI1393
F0.55
sI1399
F0.704755
sI1404
F0.67195
sI1405
F1.0
sI1407
F0.18236237783282572
sI1409
F0.19330471308040195
sI1413
F0.49979150236000003
sI1415
F0.49419136882899994
sI1418
F0.05185823388522703
sI1419
F0.5
sI1420
F1.0
sI1425
F0.9392116727047154
sI1426
F1.0
sI1435
F0.0
sI1441
F0.0
sI1443
F0.0
sI1459
F0.5157796909218659
sI1461
F0.5041957146776099
sI1462
F0.5076172
sI1467
F0.697324357227817
sI1468
F0.5112306041255988
sI1470
F0.4995
sI1472
F0.495
sI1474
F0.49815933680318564
sI1480
F0.5041585000000001
sI1485
F0.5116769487121251
sI1486
F0.4787551384923006
sI1488
F0.499887496210287
sI1490
F0.5
sI1492
F0.5
sI1494
F0.4995044042337
sI1496
F0.5
sI1499
F0.5
sI1500
F0.5
sI1501
F0.46007376044852877
sI1504
F0.49495500000000003
sI1506
F0.5
sI1507
F0.45
sI1516
F0.55
sI1522
F0.704755
sI1524
F0.5
sI1525
F1.0
sI1539
F0.5301306311841373
sI1540
F0.5048875073494333
sI1542
F0.4993860382806626
sI1544
F0.5950000000000001
sI1546
F0.5950000000000001
sI1548
F0.49959349786381
sI1550
F0.5
sI1553
F0.5
sI1554
F0.5
sI1555
F0.4995
sI1558
F0.843094701955
sI1560
F0.9392116727047154
sI1561
F0.521695
sI1566
F0.5319752533674806
sI1568
F0.55
sI1571
F0.5
sI1572
F0.5950000000000001
sI1573
F0.5
sI1577
F0.5
sI1581
F0.5
sI1583
F0.5
sI1584
F0.9556853094017375
sI1585
F0.5
sI1587
F0.5
sI1589
F0.5
sI1591
F0.5
sI1594
F0.5950000000000001
sI1596
F0.7608515499999999
sI1597
F0.5
sI1602
F0.5
sI1603
F0.5
sI1605
F0.5
sI1607
I0
sI1609
F0.5
sI1615
F0.55
sI1624
F0.5950000000000001
sI1630
F0.67195
sI1632
F0.7342795
sI1633
F1.0
sI1648
F0.11784149435798362
sI1650
F0.49887496210287013
sI1651
F0.10469403539333286
sI1656
F0.5051506948926471
sI1657
F0.1098179107320419
sI1659
F0.4989146133573469
sI1661
F0.4686244786726357
sI1663
F0.10067764380294468
sI1669
F0.0
sI1701
F0.5065749272440061
sI1702
F0.5046079746661606
sI1704
F0.5
sI1706
F0.5
sI1708
F0.50257855
sI1710
F0.49907208774064643
sI1712
F0.5950000000000001
sI1715
F0.5
sI1716
F0.55
sI1717
F0.5095000000000001
sI1720
F0.49735450000000003
sI1722
F0.5
sI1723
F0.45
sI1728
F0.4995
sI1730
F0.55
sI1733
F0.5
sI1734
F0.5
sI1735
F0.496935
sI1739
F0.5
sI1743
F0.505
sI1745
F0.55
sI1746
F0.5950000000000001
sI1747
F0.45
sI1749
F0.5
sI1751
F0.5
sI1753
F0.5
sI1756
F0.5
sI1758
F0.5
sI1759
F0.5
sI1764
F0.55
sI1765
F0.5
sI1767
F0.5
sI1769
I0
sI1771
F0.55
sI1777
F0.5
sI1782
F0.5
sI1784
F0.5
sI1787
F0.5
sI1788
F0.7608515499999999
sI1789
F0.5
sI1793
F0.5
sI1797
F0.5
sI1799
F0.5
sI1800
F0.9898622202047773
sI1801
F0.52615
sI1803
F0.514
sI1805
F0.5950000000000001
sI1807
F0.5950000000000001
sI1811
F1.0
sI1815
F1.0
sI1826
F1.0
sI1827
F1.0
sI1832
F1.0
sI1834
F1.0
sI1836
F0.5
sI1837
F0.5
sI1839
F0.45
sI1841
F0.0
sI1843
F0.5
sI1845
F0.5
sI1847
F0.0
sI1851
F0.8587852317595001
sI1852
F0.5
sI1855
F0.9249526823515004
sI1857
F0.7342795
sI1858
F0.5
sI1864
F0.5589441319925267
sI1866
F0.49897
sI1867
F0.405
sI1872
F0.9788044208623918
sI1873
F0.6249270510491227
sI1875
F0.5135500000000001
sI1877
F0.55
sI1879
F0.7342795
sI1885
F0.0
sI1890
F0.495
sI1891
F0.09337061848364961
sI1893
F0.45
sI1895
F0.5
sI1897
F0.47385
sI1899
F0.5
sI1901
F0.5
sI1904
F0.405
sI1905
F0.5
sI1906
F0.08947034655549356
sI1909
F0.0
sI1911
F0.0
sI1921
F0.5
sI1927
F0.704755
sI1929
F0.5950000000000001
sI1930
F1.0
sI1948
F0.55
sI1954
F0.67195
sI1956
F0.5
sI1957
F1.0
sI1972
F0.5
sI1974
F0.5
sI1975
F0.5
sI1980
F0.5
sI1981
F0.5
sI1983
F0.5
sI1985
F0.5
sI1987
F0.5
sI1993
F0.495
sI2026
F0.5950000000000001
sI2028
F0.55
sI2029
F0.5
sI2034
F0.610325223732542
sI2035
F0.5
sI2037
F0.6761856437459485
sI2039
F0.7342795
sI2041
F0.5950000000000001
sI2047
F0.55
sI2052
F0.5244881819874075
sI2053
F0.4995
sI2055
F0.499783865828879
sI2057
F0.55
sI2059
F0.5
sI2061
F0.4974371903207545
sI2063
F0.46132022574215714
sI2066
F0.41109561708858167
sI2067
F0.5
sI2068
F0.5
sI2071
F0.55
sI2073
F0.5950000000000001
sI2074
F0.5
sI2083
F0.5
sI2089
F0.5
sI2091
F0.7342795
sI2092
F1.0
sI2137
F0.6355000000000001
sI2143
F0.704755
sI2145
F0.55
sI2146
F1.0
sI2187
F0.25017777957433074
sI2189
F0.5076828764556065
sI2192
F0.49709746349401684
sI2193
F0.5122974494897782
sI2194
F0.5
sI2198
F0.50005
sI2202
F0.5000850814697981
sI2204
F0.5005
sI2205
F0.5109349147653227
sI2206
F0.5
sI2208
F0.49961605008640914
sI2210
F0.55
sI2212
F0.5
sI2216
F0.5
sI2220
F0.5
sI2222
F0.5
sI2231
F0.5
sI2232
F0.5
sI2234
F0.5
sI2237
F0.5
sI2238
F0.5
sI2239
F0.5
sI2241
F0.5068481115362418
sI2242
F0.5
sI2244
F0.4991546025
sI2246
F0.55
sI2248
F0.5
sI2250
F0.4995
sI2252
F0.5
sI2255
F0.5
sI2256
F0.5
sI2257
F0.5
sI2260
F0.5
sI2262
F0.5
sI2263
F0.5
sI2270
F0.4995855
sI2274
F0.4067065020526407
sI2276
F0.495855
sI2285
F0.505
sI2286
F0.17683806056222834
sI2288
F0.7342795
sI2291
F1.0
sI2292
F0.12718592167025813
sI2293
F0.11928884756728676
sI2303
F0.45855000000000007
sI2315
F0.5
sI2319
F0.1007179176770578
sI2321
F0.0
sI2322
F0.5079978280408535
sI2324
F0.55
sI2327
F1.0
sI2328
F0.505656025737129
sI2329
F0.5006119158727509
sI2333
F0.5
sI2337
F0.5
sI2339
F0.5
sI2340
F0.704755
sI2341
F0.5
sI2343
F1.0
sI2347
F0.7342795
sI2349
F0.23283667386544785
sI2350
F0.20957048258134275
sI2352
F0.142805029349305
sI2354
F0.4743851476277686
sI2356
F0.5335404370262226
sI2358
F0.13932103361707307
sI2360
F0.503638075
sI2363
F0.10387207614175038
sI2364
F0.5030616535327901
sI2365
F0.18273231127030443
sI2368
F0.5298828003955
sI2370
F0.48299445077768216
sI2371
F0.08338590849833284
sI2376
F0.1657531971274125
sI2378
F0.49580878554696717
sI2381
F0.36450000000000005
sI2382
F0.5097278534499999
sI2383
F0.49905
sI2387
F0.405
sI2391
F0.4999540951
sI2393
F0.5
sI2394
F0.5627322233972266
sI2395
F0.42400000000000004
sI2397
F0.07504731764849956
sI2399
F0.5
sI2401
F0.5
sI2404
F0.15680087112361538
sI2406
F0.4952249946
sI2407
F0.114383962274805
sI2412
F0.12759561633314842
sI2413
F0.0675425858836496
sI2415
F0.114383962274805
sI2417
F0.5
sI2419
F0.10257876872186644
sI2425
F0.5
sI2432
F0.4983805
sI2436
F0.499995
sI2438
F0.5
sI2447
F0.5
sI2448
F0.4646718685043839
sI2450
F0.5005
sI2453
F0.505
sI2454
F0.49995
sI2455
F0.4995
sI2465
F0.5
sI2477
F0.5
sI2481
F0.5
sI2483
I0
sI2484
F0.49962195
sI2486
F0.5
sI2489
F0.5
sI2490
F0.5
sI2491
F0.5
sI2495
F0.5
sI2499
F0.5
sI2501
F0.5
sI2502
F0.5005
sI2503
F0.5
sI2505
F0.5
sI2507
F0.55
sI2509
F0.5
sI2519
F0.5
sI2531
F0.5
sI2535
F0.09265100944259205
sI2537
F0.0
sI2567
F0.45
sI2571
F0.484236679470424
sI2573
F0.5
sI2582
F0.5
sI2583
F0.21045729373637181
sI2585
F0.7342795
sI2588
F1.0
sI2589
F0.10070366055452715
sI2590
F0.10009911608143035
sI2592
F0.1665614838284229
sI2594
F0.5020525
sI2597
F0.405
sI2598
F0.507101995
sI2599
F0.4892955400073538
sI2603
F0.45
sI2607
F0.49734
sI2609
F0.5
sI2610
F0.14990389585387995
sI2611
F0.10294556604732451
sI2613
F0.08634213646218383
sI2615
F0.47385
sI2617
F0.503587852317595
sI2621
F0.36450000000000005
sI2625
F0.4870853595
sI2627
F0.495
sI2636
F0.5
sI2637
F0.10684637144333284
sI2639
F0.4905
sI2642
F0.32805000000000006
sI2643
F0.44975655000000003
sI2644
F0.32805000000000006
sI2646
F0.50976234561115
sI2647
F0.1431709225839525
sI2649
F0.49032378899999995
sI2651
F0.495
sI2653
F0.5122844200000001
sI2655
F0.13139417860733693
sI2657
F0.6355000000000001
sI2660
F0.5
sI2661
F0.704755
sI2662
F0.10032333430251983
sI2665
F0.13596745711084912
sI2667
F0.49963048716023134
sI2668
F0.07189048746521517
sI2673
F0.5035834515832728
sI2674
F0.4667714883195939
sI2676
F0.5026828050000001
sI2678
F0.55
sI2680
F0.5
sI2682
F0.5
sI2684
F0.5
sI2687
F0.5
sI2688
F0.5
sI2689
F0.5
sI2692
F0.5
sI2694
F0.5
sI2695
F0.45
sI2700
F0.5
sI2702
F0.5
sI2705
F0.5
sI2706
F0.5
sI2707
F0.5
sI2711
F0.5
sI2715
F0.5
sI2717
F0.5
sI2718
F0.5
sI2719
F0.5
sI2721
F0.5
sI2723
F0.5
sI2725
F0.5
sI2728
F0.5
sI2730
F0.5
sI2731
F0.5
sI2736
F0.495
sI2737
F0.5
sI2739
F0.45
sI2741
F0.5
sI2743
F0.5
sI2749
F0.5
sI2754
F0.500095
sI2756
F0.5
sI2759
F1.0
sI2760
F0.50095
sI2761
F0.5
sI2765
F0.5
sI2769
F0.5
sI2771
F0.55
sI2772
F0.704755
sI2773
F0.45
sI2775
F1.0
sI2779
F0.6355000000000001
sI2783
F0.4912037012805672
sI2787
F0.5
sI2789
F0.45773824895453247
sI2798
F0.38902663963331685
sI2799
F0.07123726461365468
sI2801
F0.67195
sI2804
F1.0
sI2805
F0.495
sI2806
F0.5
sI2808
F0.55
sI2809
F0.5
sI2811
F1.0
sI2815
F0.55
sI2817
F0.505
sI2819
F0.5
sI2822
F1.0
sI2823
F0.55
sI2824
F0.5
sI2827
F0.5
sI2830
F1.0
sI2836
F0.21262561770400726
sI2838
F0.49086855000000007
sI2839
F0.14107355347225947
sI2844
F0.4954735755
sI2845
F0.12709329141645
sI2847
F0.45
sI2849
F0.5
sI2851
F0.4799983361017569
sI2857
F0.495
sI2862
F0.5014528596566298
sI2863
F0.19444686709729003
sI2865
F0.4995
sI2867
F0.5
sI2869
F0.7342795
sI2871
F0.49973575499999995
sI2873
F0.495
sI2876
F0.45
sI2877
F0.5005
sI2878
F0.41586009972314586
sI2881
F0.7847663949999999
sI2883
F0.495
sI2884
F0.45
sI2893
F0.0
sI2899
F0.0
sI2901
F0.0
sI2918
F0.5
sI2922
F0.5324354957771525
sI2924
F0.6355000000000001
sI2933
F0.505
sI2934
F0.5009053937347926
sI2936
F0.5950000000000001
sI2939
F0.5
sI2940
F0.5950000000000001
sI2941
F0.5
sI2951
F0.5
sI2963
F0.5
sI2967
F0.5
sI2969
I0
sI2970
F0.5
sI2972
F0.5
sI2975
F0.505
sI2976
F0.55
sI2977
F0.5
sI2981
F0.5
sI2985
F0.5
sI2987
F0.5
sI2988
F0.5950000000000001
sI2989
F0.4959467131196391
sI2991
F0.5
sI2993
F0.5
sI2995
F0.55
sI3005
F0.5
sI3017
F0.10135364714849954
sI3021
F0.10294556604732451
sI3023
F0.0
sI3053
F0.5
sI3057
F0.5
sI3059
F0.5
sI3068
F1.0
sI3069
F0.5
sI3071
F0.5
sI3074
F1.0
sI3075
F0.5
sI3076
F0.5
sI3078
F0.18547599366937884
sI3080
F0.6355000000000001
sI3083
F0.405
sI3084
F0.704755
sI3085
F0.5903301430450001
sI3089
F0.45
sI3093
F0.5
sI3095
F0.5
sI3096
F0.704755
sI3097
F0.582505822495
sI3099
F0.30507790506980254
sI3101
F0.5
sI3103
F0.67195
sI3107
F0.10235476899828477
sI3111
F0.5400010000000001
sI3113
F0.6355000000000001
sI3122
F0.5
sI3123
F0.6254967447181862
sI3125
F0.704755
sI3128
F0.062252881651368025
sI3129
F0.704755
sI3130
F1.0
sI3132
F0.7342795
sI3133
F0.029074868501520024
sI3135
F0.11552780189755306
sI3137
F0.5
sI3139
F0.704755
sI3141
F0.114383962274805
sI3143
F0.5
sI3146
F0.5
sI3147
F0.5
sI3148
F0.09855623539579793
sI3151
F0.67195
sI3153
F0.5
sI3154
F0.03682962917928094
sI3167
F0.5
sI3179
F0.45
sI3183
F0.5
sI3185
F0.0
sI3215
F0.5
sI3219
F0.5
sI3221
F0.5
sI3230
F0.5
sI3231
F0.505
sI3233
F0.5
sI3236
F0.5
sI3237
F0.5
sI3238
F0.5
sI3302
F0.45
sI3314
F0.05645060593375979
sI3318
F0.04875933389988765
sI3320
F0.0
sI3323
F0.45
sI3327
F0.48436254150144453
sI3329
F0.5
sI3338
F0.5
sI3339
F0.18252829945790217
sI3341
F0.5950000000000001
sI3344
F0.07504731764849956
sI3345
F0.67195
sI3346
F0.53587852317595
sI3356
F0.5
sI3368
F0.17433922005
sI3372
F0.32805000000000006
sI3374
F0.0
sI3375
F0.494141715
sI3377
F0.55
sI3380
F0.5
sI3381
F0.55
sI3382
F0.3635389600720291
sI3386
F0.5
sI3390
F0.49598521911705856
sI3392
F0.5
sI3393
F0.6355000000000001
sI3394
F0.12750309555769085
sI3396
F0.44348433129136694
sI3398
F0.55
sI3400
F0.9507614548908194
sI3402
F0.4980913976700001
sI3404
F0.5
sI3407
F0.5
sI3408
F0.5950000000000001
sI3409
F0.505
sI3413
F0.5
sI3417
F0.5
sI3419
F0.55
sI3420
F0.55
sI3421
F0.5
sI3423
F0.45
sI3425
F0.5
sI3427
F0.55
sI3431
F0.5
sI3435
F0.5
sI3437
F0.5
sI3446
F0.5
sI3447
F0.5
sI3449
F0.5
sI3452
F0.5
sI3453
F0.5
sI3454
F1.0
sI3456
F0.5
sI3457
F0.5
sI3459
F0.5
sI3461
F0.55
sI3463
F0.5
sI3465
F0.5
sI3467
F0.5
sI3470
F0.5
sI3471
F0.5
sI3472
F0.5
sI3475
F0.55
sI3477
F0.5
sI3478
F0.5
sI3485
F0.505
sI3489
F0.5095000000000001
sI3491
F0.55
sI3500
F1.0
sI3501
F0.2657205
sI3503
F0.55
sI3506
F1.0
sI3507
F0.55
sI3508
F0.45
sI3518
F0.405
sI3530
F0.36450000000000005
sI3534
F0.45
sI3536
F0.0
sI3537
F0.5
sI3539
F0.5
sI3542
F1.0
sI3543
F0.5
sI3544
F0.505
sI3548
F1.0
sI3552
F1.0
sI3555
F0.5
sI3556
F0.5
sI3558
F1.0
sI3562
F0.55
sI3564
F0.7847663949999999
sI3565
F0.1445606440423245
sI3567
F0.044947768756696316
sI3569
F0.5
sI3571
F0.704755
sI3573
F0.5
sI3575
F0.5
sI3578
F0.45
sI3579
F0.5
sI3580
F0.405
sI3583
F0.67195
sI3585
F0.55
sI3586
F0.405
sI3591
F0.5
sI3593
F0.5
sI3596
F0.08769019059826251
sI3597
F0.6355000000000001
sI3598
F1.0
sI3602
F0.45
sI3606
F0.505
sI3608
F0.55
sI3609
F0.704755
sI3610
F1.0
sI3612
F0.5
sI3614
F0.5950000000000001
sI3619
F0.0
sI3621
F0.0
sI3627
F0.0
sI3632
F0.0
sI3634
F0.0
sI3640
F0.0
sI3645
F0.505859382583184
sI3646
F0.4995
sI3648
F0.4818821755653429
sI3650
F0.55
sI3652
F0.5
sI3654
F0.5
sI3656
F0.5
sI3659
F0.45
sI3660
F0.5
sI3661
F0.49978390145315665
sI3664
F0.5
sI3666
F0.5
sI3667
F0.5
sI3672
F0.5
sI3674
F0.5
sI3677
F0.5
sI3678
F0.5
sI3679
F0.5
sI3683
F0.5
sI3687
F0.5
sI3689
F0.5
sI3690
F0.5
sI3691
F0.4995
sI3693
F0.5
sI3695
F0.5
sI3697
F0.5
sI3700
F0.5
sI3702
F0.5
sI3703
F0.5
sI3708
F0.5
sI3709
F0.5
sI3711
F0.5
sI3713
F0.0
sI3715
F0.503065
sI3721
F0.5
sI3726
F0.5010028223797115
sI3728
F0.55
sI3731
F1.0
sI3732
F0.49222691128035956
sI3733
F0.4848032368845402
sI3737
F0.5
sI3741
F0.4857239868276415
sI3743
F0.5
sI3744
F0.7608515499999999
sI3745
F0.505
sI3747
F1.0
sI3751
F0.704755
sI3755
F0.505
sI3759
F0.48715234894023224
sI3761
F0.5950000000000001
sI3770
F0.5
sI3771
F0.5
sI3773
F0.5
sI3776
F1.0
sI3777
F0.55
sI3778
F0.5
sI3780
F0.55
sI3781
F0.5
sI3783
F1.0
sI3787
F0.6355000000000001
sI3789
F0.5
sI3791
I0
sI3795
F0.46108742867758995
sI3796
F0.44174293881384563
sI3799
F0.5
sI3802
F1.0
sI3808
F0.4685778865720703
sI3810
F0.11001961487740976
sI3811
F0.08338590849833284
sI3816
F0.5024330917843297
sI3817
F0.4281404228152191
sI3819
F0.08685658034113099
sI3821
F0.05210523380000385
sI3823
F0.337317233717692
sI3829
F0.0
sI3834
F0.1480991852798631
sI3835
F0.0863900892154747
sI3837
F0.0880585895699064
sI3839
F0.48195
sI3841
F0.4905
sI3843
F0.1455872846922127
sI3845
F0.12283596176140761
sI3848
F0.03142036664371702
sI3849
F0.4696220936453889
sI3850
F0.10013799766185956
sI3853
F0.0
sI3855
F0.0
sI3865
F0.5
sI3871
F0.5950000000000001
sI3873
F0.5
sI3874
F1.0
sI3888
F0.50005
sI3890
F0.5005
sI3893
F0.5
sI3894
F0.5
sI3895
F0.5
sI3899
F0.45
sI3903
F0.5
sI3905
F0.5
sI3906
F0.5
sI3907
F0.45
sI3909
F0.5
sI3911
F0.5
sI3913
F0.495
sI3917
F0.505
sI3921
F0.5
sI3923
F0.5
sI3932
F0.5
sI3933
F0.5
sI3935
F0.5
sI3938
F0.5
sI3939
F0.5
sI3940
F0.45
sI3942
F0.495
sI3943
F0.5
sI3945
F0.5
sI3947
I0
sI3949
F0.5
sI3951
F0.5
sI3953
F0.0
sI3957
F0.5
sI3958
F0.5
sI3961
F0.5
sI3963
F0.5
sI3964
F0.5
sI3971
F0.5
sI3975
F0.4869834254487875
sI3977
F0.55
sI3986
F0.5
sI3987
F0.5
sI3989
F0.5
sI3992
F1.0
sI3993
F0.55
sI3994
F0.5
sI4004
F1.0
sI4016
F1.0
sI4020
F1.0
sI4023
F0.5
sI4025
F0.0
sI4029
F0.44096303693640276
sI4030
F0.35182975619351875
sI4038
F0.315082693476625
sI4040
F0.0
sI4041
F0.8062897554999999
sI4042
F0.5095000000000001
sI4044
F1.0
sI4048
F0.7847663949999999
sI4050
F0.4955898876358794
sI4051
F0.36450000000000005
sI4053
F0.08980354073431379
sI4055
F0.5
sI4057
F0.4591977236908011
sI4059
F0.4621127528653135
sI4061
F0.55
sI4064
F0.03230540944613336
sI4065
F0.5
sI4066
F0.2550656682934124
sI4069
F0.0
sI4071
F0.0
sI4077
F0.1022242950699203
sI4079
F0.4905
sI4082
F0.36450000000000005
sI4083
F0.4960194524844298
sI4084
F0.32805000000000006
sI4088
F0.07504731764849956
sI4092
F0.3903090778328815
sI4094
F0.55
sI4095
F0.0
sI4100
F0.0
sI4102
F0.0
sI4105
F0.5498787333594249
sI4107
F0.46370434499999996
sI4108
F0.37260000000000004
sI4113
F0.67195
sI4114
F0.6530302755752498
sI4116
F0.405
sI4118
F0.0
sI4120
F0.843094701955
sI4126
F0.0
sI4132
F0.5
sI4134
F0.5
sI4135
F0.5
sI4140
F0.5
sI4141
F0.5
sI4143
F0.5
sI4145
F0.5
sI4147
F0.5005
sI4153
F0.5
sI4158
F0.5
sI4159
F0.5
sI4161
F0.5
sI4163
F0.5
sI4165
F0.5
sI4167
F0.5
sI4169
F0.5
sI4172
F0.5
sI4173
F0.5
sI4174
F0.5
sI4177
F0.5
sI4179
F0.5
sI4180
F0.45
sI4189
F0.5
sI4195
F0.5
sI4197
F0.5
sI4198
F1.0
sI4212
F0.5950000000000001
sI4213
F0.5
sI4215
F1.0
sI4219
F0.5950000000000001
sI4221
F0.5032471070651275
sI4223
F0.55
sI4226
F1.0
sI4227
F0.4876316750717317
sI4228
F0.4704806504394775
sI4231
F0.55
sI4234
F1.0
sI4239
F0.4983787836605484
sI4241
F0.55
sI4244
F1.0
sI4245
F0.44443176700385045
sI4246
F0.3877249155648445
sI4250
F0.4104663101382902
sI4254
F0.38956958366009625
sI4256
F0.19282467536007888
sI4257
F0.55
sI4258
F0.5
sI4260
F1.0
sI4264
F0.6355000000000001
sI4267
F0.5
sI4270
F1.0
sI4275
F0.55
sI4276
F0.5
sI4278
F1.0
sI4282
F0.67195
sI4297
F0.5
sI4303
F0.55
sI4305
F0.5950000000000001
sI4306
F1.0
sI4321
F0.15633224126992468
sI4323
F0.5
sI4324
F0.09265100944259205
sI4329
F0.49085278929303994
sI4330
F0.15077718066730608
sI4332
F0.4541473752118663
sI4334
F0.28943284867596886
sI4336
F0.10000005588692591
sI4342
F0.0
sI4375
F0.5206340571430937
sI4377
F0.5072108207586854
sI4378
F0.5
sI4383
F0.5910211170110177
sI4384
F0.505
sI4386
F0.5088745903441209
sI4388
F0.5098238898747038
sI4390
F0.5
sI4396
F0.5
sI4401
F0.5000736644331881
sI4402
F0.5
sI4404
F0.49962358581770977
sI4406
F0.5
sI4408
F0.5
sI4410
F0.4836074053546402
sI4412
F0.5
sI4415
F0.5
sI4416
F0.5
sI4417
F0.5
sI4420
F0.5
sI4422
F0.5
sI4423
F0.5
sI4432
F0.5
sI4438
F0.704755
sI4440
F0.55
sI4441
F1.0
sI4455
F0.7630657105992263
sI4456
F0.505
sI4458
F0.43731318697226884
sI4460
F0.4980110244178345
sI4462
F0.5950000000000001
sI4464
F0.49592699999999995
sI4466
F0.5
sI4469
F0.49193325000000004
sI4470
F0.5
sI4471
F0.5
sI4474
F0.7342795
sI4476
F0.15479264073828317
sI4477
F0.1406828833821208
sI4482
F0.505
sI4484
F0.55
sI4487
F0.49072074392876897
sI4488
F0.55
sI4489
F0.5
sI4493
F0.5
sI4497
F0.5
sI4499
F0.55
sI4500
F0.9324574141163504
sI4501
F0.505
sI4503
F0.14356776922945547
sI4505
F0.8587852317595001
sI4507
F0.55
sI4510
F0.55
sI4512
F0.7750421873057872
sI4513
F0.8290383389793239
sI4518
F0.55
sI4519
F0.5
sI4521
F0.5135500000000001
sI4523
F0.55
sI4525
F0.5
sI4531
F0.8587852317595001
sI4540
F0.67195
sI4546
F0.55
sI4548
F0.704755
sI4549
F1.0
sI4564
F0.55
sI4566
F0.5051487251333345
sI4567
F0.5212450000000001
sI4572
F0.1301375357883011
sI4573
F0.10991059222754204
sI4575
F0.12536544791361165
sI4577
F0.13710339788775555
sI4579
F0.0
sI4585
F0.55
sI4617
F0.5169825298512257
sI4618
F0.46409151696474243
sI4620
F0.5
sI4622
F0.5
sI4624
F0.5
sI4626
F0.499491
sI4628
F0.55
sI4631
F0.5
sI4632
F0.5
sI4633
F0.5
sI4636
F0.5
sI4638
F0.5
sI4639
F0.5
sI4644
F0.503428741775675
sI4646
F0.55
sI4649
F0.5
sI4650
F0.5950000000000001
sI4651
F0.5
sI4655
F0.5
sI4659
F0.5
sI4661
F0.5
sI4662
F0.5950000000000001
sI4663
F0.5
sI4665
F0.5
sI4667
F0.5
sI4669
F0.5
sI4672
F0.5
sI4674
F0.5
sI4675
F0.5
sI4680
F0.5
sI4681
F0.5
sI4683
F0.5
sI4685
F0.5
sI4687
F0.5
sI4693
F0.5
sI4698
F0.5305520725180084
sI4700
F0.5
sI4703
F0.48638635262549995
sI4704
F0.7608515499999999
sI4705
F0.5
sI4709
F0.5
sI4713
F0.5
sI4715
F0.5
sI4716
F0.9764493565137687
sI4717
F0.505
sI4719
F0.14874332930965242
sI4721
F0.704755
sI4723
F0.5950000000000001
sI4727
F1.0
sI4731
F1.0
sI4742
F1.0
sI4743
F1.0
sI4748
F1.0
sI4750
F1.0
sI4752
F0.5575187568743071
sI4753
F0.505
sI4755
F0.46337833685588836
sI4757
F0.42478537752000006
sI4759
F0.55
sI4761
F0.6166902719090958
sI4763
F0.704755
sI4766
F0.29524500000000004
sI4767
F0.843094701955
sI4768
F0.5
sI4771
F0.9452905054342439
sI4773
F0.11339363068319762
sI4774
F0.10043672547544646
sI4780
F0.12666132638843472
sI4782
F0.5028743665
sI4783
F0.12657997786422778
sI4788
F0.9556853094017375
sI4789
F0.10411621371954383
sI4791
F0.5180500000000001
sI4793
F0.55
sI4795
F0.0
sI4801
F0.12362725868553685
sI4806
F0.09741040739717997
sI4807
F0.05386348359424575
sI4809
F0.1172112070955661
sI4811
F0.49749418641606147
sI4813
F0.0
sI4815
F0.06823298567875288
sI4817
F0.55
sI4820
F0.08902757970430905
sI4821
F0.0
sI4825
F0.5
sI4827
F0.4915887924206075
sI4828
F0.04268656001222183
sI4837
F0.7847663949999999
sI4843
F0.7342795
sI4845
F0.5950000000000001
sI4846
F1.0
sI4864
F0.55
sI4870
F0.55
sI4872
F0.55
sI4873
F1.0
sI4888
F0.5
sI4890
F0.49623585817709776
sI4891
F0.5
sI4896
F0.5
sI4897
F0.5
sI4899
F0.5
sI4901
F0.5
sI4903
F0.5
sI4909
F0.5
sI4942
F0.5
sI4944
F0.52403579794
sI4945
F0.57256758055
sI4950
F0.6355000000000001
sI4951
F0.5
sI4953
F0.5
sI4955
F0.5
sI4957
F0.55
sI4963
F0.6355000000000001
sI4968
F0.5
sI4969
F0.5
sI4971
F0.46235858177097755
sI4973
F0.435898198465969
sI4975
F0.5
sI4977
F0.5
sI4979
F0.5950000000000001
sI4982
F0.37345080136682446
sI4983
F0.5
sI4984
F0.5
sI4987
F0.6355000000000001
sI4989
F0.1069864450937154
sI4990
F0.0255875072460938
sI4999
F0.87290670858355
sI5005
F0.5
sI5007
F0.55
sI5008
F1.0
sI5053
F0.5950000000000001
sI5059
F0.55
sI5061
F0.55
sI5062
F1.0
sI5103
F0.5139375820547138
sI5104
F0.5473568518120056
sI5106
F0.5
sI5108
F0.5
sI5110
F0.5950000000000001
sI5112
F0.46860905690238885
sI5114
F0.704755
sI5117
F0.5
sI5118
F0.5
sI5119
F0.5
sI5122
F0.5950000000000001
sI5124
F0.5
sI5125
F0.505
sI5130
F0.504171
sI5132
F0.50076
sI5135
F0.5
sI5136
F0.55
sI5137
F1.0
sI5141
F0.5
sI5145
F0.5
sI5147
F0.5
sI5148
F0.5
sI5149
F1.0
sI5151
F0.5
sI5153
F0.5
sI5158
F0.561358496003695
sI5160
F0.5
sI5161
F0.5
sI5166
F0.55
sI5167
F0.505
sI5169
F0.5
sI5171
F0.5
sI5173
F0.5
sI5179
F0.5
sI5184
F0.5
sI5186
F0.5
sI5189
F0.43088032487511746
sI5190
F0.55
sI5191
F0.505
sI5195
F1.0
sI5199
F1.0
sI5202
F0.5053296028257876
sI5203
F0.5
sI5205
F0.14834828429753738
sI5207
F0.12295779605886233
sI5209
F0.55
sI5213
F0.5
sI5217
F0.5
sI5219
F0.5
sI5228
F1.0
sI5229
F0.521695
sI5231
F0.55
sI5234
F0.10075713719797993
sI5235
F0.55
sI5236
F1.0
sI5238
F0.5
sI5239
F0.6182396226181863
sI5241
F0.4957438738125549
sI5243
F0.5950000000000001
sI5245
F0.67195
sI5247
F1.0
sI5252
F1.0
sI5254
F1.0
sI5257
F0.67195
sI5259
F0.44211073683241964
sI5260
F0.3722031454386686
sI5266
F0.7342795
sI5268
F0.5194851801940001
sI5269
F0.5615250895
sI5274
F0.14303576929707434
sI5275
F0.10752075374636169
sI5277
F0.14973411168607687
sI5279
F0.12159439408232242
sI5281
F0.0
sI5287
F0.7608515499999999
sI5292
F0.7342795
sI5293
F1.0
sI5295
F0.4990757671102778
sI5297
F0.4069164424768612
sI5301
F0.09265100944259205
sI5303
F0.5
sI5306
F0.0690400367691744
sI5307
F0.0
sI5313
F0.8062897554999999
sI5314
F1.0
sI5323
F0.67195
sI5329
F0.5950000000000001
sI5331
F0.7847663949999999
sI5332
F1.0
sI5346
F0.49899169081006833
sI5348
F0.5
sI5351
F0.5
sI5352
F0.495
sI5353
F0.5
sI5357
F0.5
sI5361
F0.5
sI5363
F0.5
sI5364
F0.5
sI5365
F0.5
sI5367
F0.5
sI5369
F0.5
sI5371
F0.5
sI5375
F0.5031
sI5379
F0.45
sI5381
F0.55
sI5390
F0.5
sI5391
F0.505
sI5393
F0.5
sI5396
F0.5
sI5397
F0.55
sI5398
F1.0
sI5400
F0.5
sI5401
F0.5
sI5403
F0.5
sI5405
F0.5
sI5407
F0.5
sI5409
F0.5
sI5411
F0.5
sI5414
F0.5
sI5415
F0.5
sI5416
F0.5
sI5419
F0.5
sI5421
F0.5
sI5422
F0.5
sI5429
F0.5
sI5433
F0.5
sI5435
F0.5
sI5444
F1.0
sI5445
F0.5001965339453512
sI5447
F0.55
sI5450
F0.1142673060951664
sI5451
F0.55
sI5452
F0.5
sI5462
F1.0
sI5474
F1.0
sI5478
F1.0
sI5481
F0.5
sI5483
F0.5
sI5486
F0.3391484500000001
sI5487
F0.55
sI5488
F0.5
sI5492
F1.0
sI5496
F1.0
sI5499
F0.4027917306034159
sI5500
F0.32987388633902154
sI5502
F0.10091544205670111
sI5504
F0.10000000000000002
sI5506
F0.7608515499999999
sI5508
F0.1333577416582048
sI5509
F0.04559536422637507
sI5511
F0.13623302657351252
sI5513
F0.12518408666876418
sI5515
F0.0
sI5517
F0.10294556604732451
sI5519
F0.5
sI5522
F0.03819659240630223
sI5523
F0.0
sI5527
F0.5950000000000001
sI5529
F0.39321454440177306
sI5530
F0.11220406577224006
sI5535
F0.06684907444613335
sI5537
F0.47385
sI5540
F0.05633615032482748
sI5541
F0.0
sI5546
F0.36450000000000005
sI5552
F0.0
sI5553
F0.5950000000000001
sI5554
F1.0
sI5556
F0.28907304255112276
sI5558
F0.1540090313932437
sI5563
F0.10164207746377645
sI5565
F0.5437183091455
sI5566
F0.10022252341986268
sI5571
F0.5
sI5572
F0.08338590849833284
sI5574
F0.6149656810899999
sI5576
F0.7342795
sI5578
F0.0
sI5584
F0.1
sI5590
F0.5950000000000001
sI5592
F0.5
sI5593
F0.5
sI5598
F0.5
sI5599
F0.505
sI5601
F0.5
sI5603
F0.5
sI5605
F0.5
sI5611
F0.55
sI5616
F0.55
sI5617
F1.0
sI5619
F0.5
sI5621
F0.5
sI5625
F0.5
sI5627
F0.5
sI5630
F0.5
sI5631
F0.5
sI5632
F1.0
sI5637
F0.5
sI5638
F1.0
sI5647
F0.5
sI5653
F0.55
sI5655
F0.5
sI5656
F1.0
sI5670
F0.8062897554999999
sI5671
F0.5
sI5673
F0.4638298255904031
sI5675
F0.5
sI5677
F0.55
sI5679
F1.0
sI5684
F1.0
sI5686
F1.0
sI5689
F0.5
sI5691
F0.13912486877429897
sI5692
F0.08564566661863764
sI5697
F0.5
sI5699
F0.5
sI5702
F0.3657259927177901
sI5703
F0.5
sI5704
F1.0
sI5708
F1.0
sI5712
F1.0
sI5715
F0.55
sI5716
F1.0
sI5718
F0.02672356043495018
sI5720
F0.10000610427726649
sI5725
F0.704755
sI5727
F0.55
sI5728
F0.5095000000000001
sI5734
F1.0
sI5736
F1.0
sI5746
F0.67195
sI5755
F0.6355000000000001
sI5761
F0.55
sI5763
F0.704755
sI5764
F1.0
sI5781
F0.8062897554999999
sI5782
F1.0
sI5787
F0.5
sI5788
F1.0
sI5790
F0.5
sI5792
F0.423999999999871
sI5836
F0.55
sI5842
F0.55
sI5844
F0.55
sI5845
F1.0
sI5860
F0.5
sI5862
F0.5
sI5863
F0.5
sI5868
F0.5
sI5869
F0.5
sI5871
F0.5
sI5873
F0.5
sI5875
F0.5
sI5881
F0.5
sI5914
F0.5950000000000001
sI5916
F0.48930608452096064
sI5917
F0.45
sI5922
F0.482805
sI5923
F0.45
sI5925
F0.45
sI5927
F0.4673295
sI5929
F0.5
sI5935
F0.5950000000000001
sI5940
F0.55
sI5941
F0.5
sI5943
F0.45
sI5945
F0.55
sI5947
F0.5
sI5949
F0.45
sI5951
F0.5
sI5954
F0.405
sI5955
F0.5
sI5956
F0.5
sI5959
F0.5
sI5961
F0.843094701955
sI5962
F0.45
sI5971
F0.8587852317595001
sI5977
F0.5
sI5979
F0.55
sI5980
F1.0
sI6025
F0.55
sI6031
F0.5950000000000001
sI6033
F0.67195
sI6034
F1.0
sI6076
F0.5
sI6078
F0.5
sI6079
F0.5
sI6084
F0.55
sI6085
F0.5
sI6087
F0.5
sI6089
F0.5
sI6091
F0.55
sI6097
F0.5
sI6102
F0.5950000000000001
sI6103
F0.5
sI6105
F0.5
sI6107
F0.5
sI6109
F0.5
sI6111
F0.5
sI6113
F0.5
sI6116
F0.5
sI6117
F0.5
sI6118
F0.5
sI6121
F0.5
sI6123
F0.5
sI6124
F0.5
sI6133
F0.5
sI6139
F0.5
sI6141
F0.5
sI6142
F1.0
sI6156
F0.55
sI6157
F0.5
sI6159
F0.45
sI6161
F0.5
sI6163
F0.5
sI6165
F0.45
sI6167
F0.5
sI6170
F0.405
sI6171
F0.5
sI6172
F0.5
sI6175
F0.5950000000000001
sI6177
F0.7608515499999999
sI6178
F0.5
sI6183
F1.0
sI6188
F1.0
sI6190
F1.0
sI6194
F1.0
sI6198
F1.0
sI6202
F1.0
sI6204
F1.0
sI6211
F0.5
sI6213
F0.5
sI6214
F0.5
sI6219
F0.67195
sI6220
F0.5
sI6222
F0.45
sI6224
F0.0
sI6226
F0.5
sI6232
F0.7342795
sI6241
F0.7342795
sI6247
F0.704755
sI6249
F0.55
sI6250
F1.0
sI6265
F0.495
sI6267
F0.495
sI6268
F0.45
sI6273
F0.55
sI6274
F0.45
sI6276
F0.5
sI6278
F0.55
sI6280
F0.0
sI6286
F0.0
sI6349
F0.5
sI6355
F0.5
sI6357
F0.5
sI6358
F1.0
sI6403
F0.67195
sI6409
F0.5
sI6411
F0.7608515499999999
sI6412
F1.0
sI6427
F0.5
sI6429
F0.49783865828879004
sI6430
F0.5
sI6435
F0.49021190320754504
sI6436
F0.46
sI6438
F0.45
sI6440
F0.18028121326039964
sI6442
F0.55
sI6448
F0.5950000000000001
sI6561
F0.21826192054318821
sI6563
F0.5297844589542939
sI6566
F0.4998820389565638
sI6567
F0.653139735664256
sI6568
F0.4997736336229982
sI6572
F0.5283011623406536
sI6576
F0.7305301371232232
sI6578
F0.7847663949999999
sI6579
F0.5598516690167299
sI6580
F0.6040846635024602
sI6582
F0.49996579901747307
sI6584
F0.5024866476523218
sI6586
F0.6355000000000001
sI6590
F0.5
sI6594
F0.46233257616287304
sI6596
F0.5
sI6605
F0.5
sI6606
F0.5
sI6608
F0.5
sI6611
F0.4999590152290978
sI6612
F0.5
sI6613
F0.5
sI6615
F0.5447150702665982
sI6616
F0.5080994235
sI6618
F0.4617998966649623
sI6620
F0.5
sI6622
F0.55
sI6624
F0.5
sI6626
F0.55
sI6629
F0.5
sI6630
F0.7608515499999999
sI6631
F0.7572110962356567
sI6634
F0.6355000000000001
sI6636
F0.501271152385921
sI6637
F0.5
sI6644
F0.46815948576002264
sI6648
F0.5087741327593782
sI6650
F0.49694245340500004
sI6659
F0.5249755
sI6660
F0.1759340690443005
sI6662
F0.13209986085884515
sI6665
F0.11560799481245893
sI6666
F0.67195
sI6667
F1.0
sI6677
F0.45
sI6689
F0.07504731764849956
sI6693
F0.5
sI6695
F0.0
sI6696
F0.505
sI6698
F0.5
sI6701
F0.5
sI6702
F0.5950000000000001
sI6703
F1.0
sI6707
F0.5
sI6711
F0.5
sI6713
F0.55
sI6714
F0.55
sI6715
F1.0
sI6717
F0.505
sI6719
F0.6355000000000001
sI6723
F0.19594065029767055
sI6724
F0.15548988169473962
sI6726
F0.16766887091808375
sI6728
F0.48356658624210463
sI6730
F0.4922661158629173
sI6732
F0.14243166116106737
sI6734
F0.7342795
sI6737
F0.1272299331148231
sI6738
F0.8062897554999999
sI6739
F0.11139019199333286
sI6742
F0.6314353508878986
sI6744
F0.2536389491162815
sI6745
F0.09103644379421102
sI6750
F0.16351526885019255
sI6752
F0.500905
sI6755
F0.45765508399749466
sI6756
F0.12011964200677291
sI6757
F0.10650657563023463
sI6761
F0.5071424633288841
sI6765
F0.07504731764849956
sI6767
F0.55
sI6768
F0.5181535261
sI6769
F0.5
sI6771
F0.09265100944259205
sI6773
F0.49381910476909296
sI6775
F0.5950000000000001
sI6778
F0.15043450469509975
sI6780
F0.15309967669649358
sI6781
F0.03988322153843625
sI6786
F0.7608515499999999
sI6787
F0.114383962274805
sI6789
F0.09741347586053813
sI6791
F0.7342795
sI6793
F0.8062897554999999
sI6799
F0.5
sI6806
F0.499452503873926
sI6810
F0.5
sI6812
F0.55
sI6821
F1.0
sI6822
F0.4297658307017546
sI6824
F0.48783932964687504
sI6827
F0.47364759977620907
sI6828
F0.5
sI6829
F0.5
sI6839
F0.5
sI6851
F0.45
sI6855
F0.505
sI6857
F0.0
sI6858
F0.5089839257185711
sI6860
F0.55
sI6863
F0.5
sI6864
F0.6355000000000001
sI6865
F0.5
sI6869
F1.0
sI6873
F1.0
sI6876
F0.4885030574479823
sI6877
F0.46709312111110163
sI6879
F0.46237277791910814
sI6881
F0.5005
sI6883
F0.5
sI6893
F0.45
sI6905
F0.09934565478941879
sI6909
F0.5
sI6911
F0.0
sI6941
F0.45
sI6945
F0.5
sI6947
F0.5
sI6956
F1.0
sI6957
F0.04507185970987989
sI6959
F0.0270869108164234
sI6962
F0.02161084340680209
sI6963
F0.67195
sI6964
F1.0
sI6966
F0.13560335455172093
sI6968
F0.704755
sI6971
F0.4553936529435
sI6972
F0.5950000000000001
sI6973
F0.29524500000000004
sI6977
F1.0
sI6981
F1.0
sI6984
F0.11969261254272937
sI6985
F0.1039794828740996
sI6987
F0.08926349910141376
sI6989
F0.37732842441000003
sI6991
F0.495
sI6995
F0.461411568366435
sI6999
F0.09265100944259205
sI7001
F0.5
sI7010
F1.0
sI7011
F0.10280229641946369
sI7013
F0.38467267330949995
sI7016
F0.23914845
sI7017
F0.486
sI7018
F0.45
sI7020
F0.7342795
sI7021
F0.14465457607195928
sI7023
F0.14099568794472095
sI7025
F0.8970544339526756
sI7027
F0.55
sI7029
F1.0
sI7034
F1.0
sI7036
F1.0
sI7039
F0.14226986733376717
sI7041
F0.12563082224924077
sI7042
F0.02684721879658893
sI7047
F0.5648624121335248
sI7048
F0.5003354865820495
sI7050
F0.5
sI7052
F0.5
sI7054
F0.55
sI7056
F0.499995
sI7058
F0.510901285556675
sI7061
F0.5
sI7062
F0.7491787560341683
sI7063
F0.4995
sI7066
F0.6355000000000001
sI7068
F0.504248299403653
sI7069
F0.474957467104185
sI7074
F0.5
sI7076
F0.5
sI7079
F0.5
sI7080
F0.5
sI7081
F0.5
sI7085
F0.4998372749250391
sI7089
F0.50005
sI7091
F0.5
sI7092
F0.5
sI7093
F0.5
sI7095
F0.5
sI7097
F0.5
sI7099
F0.5
sI7102
F0.55
sI7104
F0.5
sI7105
F0.5
sI7110
F0.5
sI7111
F0.5
sI7113
F0.5
sI7115
F0.5
sI7117
F0.8062897554999999
sI7123
F0.55
sI7128
F0.5
sI7130
F0.5
sI7133
F0.5
sI7134
F0.5950000000000001
sI7135
F1.0
sI7139
F0.5009265135409771
sI7143
F0.505
sI7145
F0.55
sI7146
F0.5950000000000001
sI7147
F1.0
sI7149
F0.5
sI7151
F0.67195
sI7157
F0.48769234913570053
sI7161
F0.5
sI7163
F0.5
sI7172
F0.5
sI7173
F0.21056416250413174
sI7175
F0.14142157718114126
sI7178
F0.11675987991214194
sI7179
F0.9392116727047154
sI7180
F1.0
sI7182
F0.5
sI7183
F1.0
sI7185
F0.5
sI7187
F0.5
sI7191
F0.5
sI7193
F0.55
sI7196
F0.5
sI7197
F0.5
sI7198
F1.0
sI7203
F0.5
sI7204
F1.0
sI7210
F0.5034757079989265
sI7212
F0.4893436589500237
sI7213
F0.45
sI7218
F0.13644310453523245
sI7219
F0.12878274478203555
sI7221
F0.09218409834921967
sI7223
F0.1030495495246376
sI7225
F0.4632795
sI7231
F0.39111129389614496
sI7236
F0.5116241848240592
sI7237
F0.5000766700736837
sI7239
F0.4639548329823915
sI7241
F0.4979848342138721
sI7243
F0.5950000000000001
sI7245
F0.13105672256659126
sI7247
F0.4859246332888413
sI7250
F0.10258448015056663
sI7251
F0.12103527718579153
sI7252
F0.0924735285821141
sI7255
F0.55
sI7257
F0.50706469495
sI7258
F0.29524500000000004
sI7267
F0.0
sI7273
F0.0
sI7275
F0.0
sI7292
F0.5
sI7296
F0.4995
sI7298
F0.5
sI7307
F0.505
sI7308
F0.505
sI7310
F0.5
sI7313
F0.5007641032970908
sI7314
F0.55
sI7315
F0.5
sI7325
F0.5
sI7337
F0.5
sI7341
F0.5
sI7343
I0
sI7344
F0.589662884034764
sI7346
F0.6355000000000001
sI7349
F0.5
sI7350
F0.6355000000000001
sI7351
F0.5
sI7355
F0.5
sI7359
F0.505
sI7361
F0.5
sI7362
F0.6355000000000001
sI7363
F0.59167589567095
sI7365
F0.4973684359267368
sI7367
F0.55
sI7369
F0.67195
sI7379
F0.45
sI7391
F0.06078832729528464
sI7395
F0.5
sI7397
F0.0
sI7427
F0.5
sI7431
F0.5
sI7433
F0.5
sI7442
F1.0
sI7443
F0.5290255
sI7445
F0.5950000000000001
sI7448
F0.5
sI7449
F0.5950000000000001
sI7450
F1.0
sI7452
F0.1518538099350977
sI7454
F0.67195
sI7457
F0.4389229239664403
sI7458
F0.704755
sI7459
F0.45
sI7463
F0.7526058029839556
sI7467
F0.53062897555
sI7469
F0.82566077995
sI7470
F0.7608515499999999
sI7471
F0.6971486872051981
sI7473
F0.21738704556386074
sI7475
F0.5950000000000001
sI7477
F0.7608515499999999
sI7481
F0.10976598279659057
sI7485
F0.09872301419849956
sI7487
F0.5950000000000001
sI7496
F0.405
sI7497
F0.5578800895
sI7499
F0.67195
sI7502
F0.1145990268417787
sI7503
F0.6355000000000001
sI7504
F1.0
sI7506
F0.704755
sI7507
F0.10294556604732451
sI7509
F0.02149169748493379
sI7511
F0.55
sI7513
F0.5
sI7515
F0.45
sI7517
F0.7608515499999999
sI7520
F0.45
sI7521
F0.55
sI7522
F0.405
sI7525
F0.7342795
sI7527
F0.6355000000000001
sI7528
F0.0443146905982625
sI7541
F0.5
sI7553
F0.405
sI7557
F0.5
sI7559
F0.0
sI7589
F0.5
sI7593
F0.5
sI7595
F0.5
sI7604
F1.0
sI7605
F0.4750067724836476
sI7607
F0.55
sI7610
F0.505
sI7611
F0.55
sI7612
F0.5
sI7676
F0.5
sI7688
F0.015427849785889677
sI7692
F0.07957305075953826
sI7694
F0.0
sI7697
F0.5452056550000001
sI7701
F0.45
sI7703
F0.6355000000000001
sI7712
F1.0
sI7713
F0.1109050140977548
sI7715
F0.5950000000000001
sI7718
F0.10063628520107513
sI7719
F0.67195
sI7720
F0.5
sI7730
F0.5
sI7742
F0.1632164256405
sI7746
F0.45
sI7748
F0.0
sI7749
F0.505
sI7751
F0.5950000000000001
sI7754
F0.5922507683003334
sI7755
F0.55
sI7756
F0.32805000000000006
sI7760
F1.0
sI7764
F1.0
sI7767
F0.5950000000000001
sI7768
F0.15538967253997119
sI7770
F0.10933886786972773
sI7772
F0.9964651747549245
sI7774
F0.7847663949999999
sI7776
F0.6028044945608076
sI7778
F0.67195
sI7781
F0.5
sI7782
F0.6355000000000001
sI7783
F0.5
sI7787
F0.5367205000000002
sI7791
F0.8061159255019176
sI7793
F0.843094701955
sI7794
F0.6355000000000001
sI7795
F0.5
sI7797
F0.51129322057
sI7799
F0.55
sI7801
F0.5
sI7805
F0.5030990929177424
sI7809
F0.5
sI7811
F0.55
sI7820
F0.5
sI7821
F0.5
sI7823
F0.55
sI7826
F0.5
sI7827
F0.5
sI7828
F1.0
sI7830
F0.6355000000000001
sI7831
F0.45
sI7833
F0.5
sI7835
F0.5
sI7837
F0.5
sI7839
F0.5
sI7841
F0.6355000000000001
sI7844
F0.5
sI7845
F0.8587852317595001
sI7846
F0.5
sI7849
F0.67195
sI7851
F0.55
sI7852
F0.5
sI7859
F0.5
sI7863
F0.5
sI7865
F0.5
sI7874
F1.0
sI7875
F0.8830199497955702
sI7877
F0.9392116727047154
sI7880
F0.4716260150927715
sI7881
F0.907348990557408
sI7882
F1.0
sI7892
F0.5
sI7904
F0.026596459228550463
sI7908
F0.45
sI7910
F0.0
sI7911
F0.5
sI7913
F0.5
sI7916
F0.5
sI7917
F0.5
sI7918
F1.0
sI7922
F1.0
sI7926
F1.0
sI7929
F0.8587852317595001
sI7930
F1.0
sI7932
F0.5
sI7934
F0.55
sI7938
F0.82566077995
sI7939
F0.5
sI7941
F0.09659337923200695
sI7943
F0.6355000000000001
sI7945
F0.5
sI7947
F0.0779351538273029
sI7949
F0.82566077995
sI7952
F0.07964583029969804
sI7953
F0.82566077995
sI7954
F0.405
sI7957
F0.7608515499999999
sI7959
F0.6355000000000001
sI7960
F0.2657205
sI7965
F0.5469265000000001
sI7967
F0.843094701955
sI7970
F0.20949453680910282
sI7971
F0.6355000000000001
sI7972
F1.0
sI7976
F0.4272473909017
sI7980
F0.09600125143364961
sI7982
F0.5950000000000001
sI7983
F0.6355000000000001
sI7984
F1.0
sI7986
F0.5495617945
sI7988
F0.9845484228086836
sI7993
F0.0
sI7995
F0.0
sI8001
F0.0
sI8006
F0.0
sI8008
F0.0
sI8014
F0.0
sI8019
F0.624935120774835
sI8020
F0.5014814049999999
sI8022
F0.4995
sI8024
F0.5
sI8026
F0.55
sI8028
F0.7424180170492904
sI8030
F0.7608515499999999
sI8033
F0.5
sI8034
F0.7608515499999999
sI8035
F0.5
sI8038
F0.6355000000000001
sI8040
F0.5014
sI8041
F0.5
sI8046
F0.49950045
sI8048
F0.5
sI8051
F0.5
sI8052
F0.5
sI8053
F0.5
sI8057
F0.5
sI8061
F0.5
sI8063
F0.5
sI8064
F0.495
sI8065
F0.45
sI8067
F0.45
sI8069
F0.5
sI8071
F0.5
sI8074
F0.55
sI8076
F0.495
sI8077
F0.5
sI8082
F0.7608515499999999
sI8083
F0.5
sI8085
F0.45
sI8087
F0.0
sI8089
F0.8062897554999999
sI8095
F0.5
sI8100
F0.5053568500000001
sI8102
F0.500104
sI8105
F0.5
sI8106
F0.5
sI8107
F1.0
sI8111
F0.45
sI8115
F0.5
sI8117
F0.55
sI8118
F0.6355000000000001
sI8119
F1.0
sI8121
F0.5095000000000001
sI8123
F0.6355000000000001
sI8129
F0.5208400000000001
sI8133
F0.5
sI8135
F0.5950000000000001
sI8144
F0.5
sI8145
F0.5
sI8147
F0.55
sI8150
F0.5
sI8151
F0.5
sI8152
F1.0
sI8154
F0.55
sI8155
F1.0
sI8157
F0.5
sI8159
I0
sI8163
F0.5
sI8165
F0.0
sI8169
F0.5
sI8170
F1.0
sI8175
F0.55
sI8176
F1.0
sI8182
F0.51547494641905
sI8184
F0.5898233830003885
sI8185
F0.45
sI8190
F0.7608515499999999
sI8191
F0.5692870805500001
sI8193
F0.6634030289058559
sI8195
F0.7608515499999999
sI8197
F0.6355000000000001
sI8203
F0.0
sI8208
F0.5026120442906306
sI8209
F0.10427657264849954
sI8211
F0.45
sI8213
F0.3890531653602265
sI8215
F0.495
sI8217
F0.5135204429063063
sI8219
F0.5950000000000001
sI8222
F0.28115090837726087
sI8223
F0.55
sI8224
F0.08404014672877273
sI8227
F0.0
sI8229
F0.0
sI8239
F0.5
sI8245
F0.5950000000000001
sI8247
F0.7608515499999999
sI8248
F1.0
sI8262
F0.5000293063
sI8264
F0.55
sI8267
F0.5
sI8268
F0.5
sI8269
F0.5135500000000001
sI8273
F1.0
sI8277
F1.0
sI8280
F0.5003499205
sI8281
F0.45
sI8283
F0.4995
sI8285
F0.42310383250499994
sI8287
F0.5
sI8291
F0.5
sI8295
F0.5
sI8297
F0.5
sI8306
F1.0
sI8307
F0.45
sI8309
F0.5
sI8312
F0.32805000000000006
sI8313
F0.5
sI8314
F0.5
sI8316
F0.55
sI8317
F0.5
sI8319
F0.5
sI8321
I0
sI8323
F0.55
sI8325
F1.0
sI8332
F1.0
sI8335
F0.5
sI8337
F0.495
sI8338
F0.45
sI8345
F0.5
sI8349
F0.5
sI8351
F0.5
sI8360
F1.0
sI8361
F0.5290255
sI8363
F0.55
sI8366
F0.32805000000000006
sI8367
F0.55
sI8368
F1.0
sI8378
F1.0
sI8390
F1.0
sI8394
F1.0
sI8397
F0.5
sI8399
F0.0
sI8403
F0.5
sI8404
F1.0
sI8412
F1.0
sI8415
F0.6355000000000001
sI8416
F1.0
sI8418
F0.5
sI8420
F0.0
sI8424
F0.67195
sI8425
F0.405
sI8427
F0.5
sI8429
F0.5
sI8431
F0.55
sI8433
F1.0
sI8438
F1.0
sI8440
F1.0
sI8443
F0.0
sI8445
F0.0
sI8451
F0.45
sI8453
F0.55
sI8456
F0.29524500000000004
sI8457
F0.5
sI8458
F0.405
sI8462
F1.0
sI8466
F1.0
sI8469
F0.0
sI8474
F0.0
sI8476
F0.0
sI8479
F0.5950000000000001
sI8481
F0.9738326183486319
sI8482
F0.5
sI8488
F1.0
sI8490
F1.0
sI8500
F0.0
sI8506
F0.55
sI8508
F0.5
sI8509
F0.5
sI8514
F0.7710966507357953
sI8515
F0.8260557340485741
sI8517
F0.5
sI8519
F0.5
sI8521
F0.843094701955
sI8527
F0.55
sI8532
F0.500005
sI8533
F0.4950177401064249
sI8535
F0.5
sI8537
F0.5
sI8539
F0.5
sI8541
F0.50005
sI8543
F0.49956513215599
sI8546
F0.5
sI8547
F0.5005
sI8548
F0.505
sI8551
F0.5
sI8553
F0.5
sI8554
F0.5
sI8563
F0.5
sI8569
F0.8587852317595001
sI8571
F0.5
sI8572
F1.0
sI8586
F0.55
sI8587
F1.0
sI8589
F0.5
sI8591
F0.5
sI8595
F0.4951969171905499
sI8597
F0.4722175846346286
sI8600
F0.405
sI8601
F0.55
sI8602
F1.0
sI8607
F0.55
sI8608
F1.0
sI8613
F0.5330961148469869
sI8615
F0.4764405482881713
sI8618
F0.4316250077443968
sI8619
F0.6355000000000001
sI8620
F1.0
sI8624
F0.41265710765835284
sI8628
F0.5
sI8630
F0.28132260067552584
sI8631
F0.8970544339526756
sI8632
F1.0
sI8634
F0.5204755
sI8636
F0.9556853094017375
sI8643
F0.5
sI8644
F1.0
sI8649
F0.5
sI8650
F1.0
sI8652
F0.5
sI8654
F0.0
sI8671
F0.5
sI8677
F0.87290670858355
sI8679
F0.7608515499999999
sI8680
F1.0
sI8695
F0.45017740106424914
sI8697
F0.4002110442848158
sI8698
F0.29524500000000004
sI8703
F0.48422838358488984
sI8704
F0.3775209659948083
sI8706
F0.29685224468356397
sI8708
F0.11979729524053669
sI8710
F0.17963781508386695
sI8716
F0.0
sI8750
F0.5021035938580468
sI8754
F0.5
sI8756
F0.6355000000000001
sI8765
F0.5
sI8766
F0.52829750105543
sI8768
F0.5950000000000001
sI8771
F0.5
sI8772
F0.5950000000000001
sI8773
F0.5
sI8783
F0.5
sI8795
F0.5
sI8799
F0.5
sI8801
I0
sI8802
F0.505
sI8804
F0.55
sI8807
F0.5
sI8808
F0.55
sI8809
F0.5
sI8813
F0.5
sI8817
F0.505
sI8819
F0.5
sI8820
F0.55
sI8821
F0.5
sI8823
F0.5
sI8825
F0.5
sI8827
F0.5
sI8837
F0.4545
sI8849
F0.10001953588364959
sI8853
F0.08338590849833284
sI8855
F0.0
sI8885
F0.45
sI8889
F0.5
sI8891
F0.55
sI8900
F0.5
sI8901
F0.5
sI8903
F0.55
sI8906
F1.0
sI8907
F0.5
sI8908
F1.0
sI8910
F0.2075833631626922
sI8912
F0.8587852317595001
sI8915
F0.4473673526646
sI8916
F0.7608515499999999
sI8917
F0.4716812410241451
sI8921
F0.53562295
sI8925
F0.5180500000000001
sI8927
F0.5950000000000001
sI8928
F0.843094701955
sI8929
F0.5
sI8931
F0.1937102445
sI8933
F0.55
sI8935
F0.55
sI8939
F0.48865103896417034
sI8943
F0.10613085648048179
sI8945
F0.7608515499999999
sI8954
F0.517195
sI8955
F0.45
sI8957
F0.55
sI8960
F0.45
sI8961
F0.7847663949999999
sI8962
F0.45
sI8964
F0.82566077995
sI8965
F0.09067171426015945
sI8967
F0.05917102122384729
sI8969
F0.55
sI8971
F0.6355000000000001
sI8973
F0.1080181174747303
sI8975
F0.704755
sI8978
F0.5
sI8979
F0.55
sI8980
F0.0881316990931145
sI8983
F0.55
sI8985
F0.55
sI8986
F0.45
sI8999
F0.5
sI9011
F0.36450000000000005
sI9015
F0.5
sI9017
F0.0
sI9047
F0.5
sI9051
F0.5
sI9053
F0.5
sI9062
F1.0
sI9063
F0.4824489639771
sI9065
F0.5
sI9068
F0.5
sI9069
F0.5
sI9070
F0.5
sI9134
F0.5
sI9146
F0.015451577191316302
sI9150
F0.08379578750424514
sI9152
F0.0
sI9155
F0.5257450000000001
sI9159
F0.527401
sI9161
F0.6355000000000001
sI9170
F1.0
sI9171
F0.09736617055414236
sI9173
F0.55
sI9176
F0.23914845
sI9177
F0.55
sI9178
F0.45
sI9188
F0.45
sI9200
F0.23914845
sI9204
F0.32805000000000006
sI9206
F0.0
sI9207
F0.5400010000000001
sI9209
F0.5950000000000001
sI9212
F0.45
sI9213
F0.5950000000000001
sI9214
F0.5465984500000002
sI9218
F1.0
sI9222
F1.0
sI9225
F0.67195
sI9226
F0.017168419101462558
sI9228
F0.03521454636718468
sI9230
F0.55
sI9232
F0.6355000000000001
sI9234
F0.5044286058621521
sI9236
F0.5950000000000001
sI9239
F0.5
sI9240
F0.55
sI9241
F0.5
sI9245
F0.5028222496100029
sI9249
F0.5
sI9251
F0.55
sI9252
F0.55
sI9253
F0.5
sI9255
F0.5
sI9257
F0.5
sI9259
F0.5
sI9263
F0.5
sI9267
F0.5
sI9269
F0.5
sI9278
F0.5
sI9279
F0.5
sI9281
F0.5
sI9284
F0.5
sI9285
F0.5
sI9286
F0.5
sI9288
F0.55
sI9289
F0.5
sI9291
F0.5
sI9293
F0.5
sI9295
F0.5
sI9297
F0.5
sI9299
F0.55
sI9302
F0.5
sI9303
F0.55
sI9304
F0.5
sI9307
F0.5
sI9309
F0.5
sI9310
F0.5
sI9317
F0.5
sI9321
F0.5
sI9323
F0.5
sI9332
F0.5
sI9333
F0.5
sI9335
F0.5
sI9338
F1.0
sI9339
F0.5
sI9340
F1.0
sI9350
F0.405
sI9362
F0.03161243876686209
sI9366
F0.5
sI9368
F0.0
sI9369
F0.5
sI9371
F0.5
sI9374
F1.0
sI9375
F0.5
sI9376
F1.0
sI9380
F0.5
sI9384
F0.5
sI9386
F0.5
sI9387
F0.5
sI9388
F1.0
sI9390
F1.0
sI9396
F0.8062897554999999
sI9397
F0.12676140849833287
sI9399
F0.45
sI9401
F0.5
sI9403
F0.5950000000000001
sI9405
F0.054709494565756175
sI9407
F0.5950000000000001
sI9410
F0.09346386781190254
sI9411
F0.5950000000000001
sI9412
F0.36450000000000005
sI9415
F0.5
sI9417
F0.5
sI9418
F0.29524500000000004
sI9423
F0.4978305
sI9425
F0.5950000000000001
sI9428
F0.48245489263670305
sI9429
F0.67195
sI9430
F0.4907439671126873
sI9434
F0.35113615771579576
sI9438
F0.1067457001490631
sI9440
F0.7342795
sI9441
F0.5
sI9442
F0.5
sI9444
F0.45
sI9446
F0.55
sI9448
F0.55
sI9451
F0.0
sI9453
F0.0
sI9459
F0.0
sI9464
F0.0
sI9466
F0.0
sI9472
F0.0
sI9485
F1.0
sI9497
F1.0
sI9501
F1.0
sI9533
F1.0
sI9537
F1.0
sI9548
F1.0
sI9549
F1.0
sI9554
F1.0
sI9556
F1.0
sI9620
F1.0
sI9632
F1.0
sI9636
F1.0
sI9641
F1.0
sI9645
F1.0
sI9656
F1.0
sI9657
F1.0
sI9662
F1.0
sI9664
F1.0
sI9674
F1.0
sI9686
F1.0
sI9690
F1.0
sI9693
F1.0
sI9698
F1.0
sI9700
F1.0
sI9704
F1.0
sI9708
F1.0
sI9712
F1.0
sI9714
F1.0
sI9782
F1.0
sI9794
F1.0
sI9798
F1.0
sI9890
F1.0
sI9902
F1.0
sI9906
F1.0
sI9938
F1.0
sI9942
F1.0
sI9953
F1.0
sI9954
F1.0
sI9959
F1.0
sI9961
F1.0
sI9965
F1.0
sI9969
F1.0
sI9980
F1.0
sI9981
F1.0
sI9986
F1.0
sI9988
F1.0
sI9998
F1.0
sI10010
F1.0
sI10014
F1.0
sI10017
F1.0
sI10022
F1.0
sI10024
F1.0
sI10028
F1.0
sI10032
F1.0
sI10036
F1.0
sI10038
F1.0
sI10052
F1.0
sI10064
F1.0
sI10068
F1.0
sI10100
F1.0
sI10104
F1.0
sI10115
F1.0
sI10116
F1.0
sI10121
F1.0
sI10123
F1.0
sI10125
F1.0
sI10130
F1.0
sI10132
F1.0
sI10136
F1.0
sI10140
F1.0
sI10144
F1.0
sI10146
F1.0
sI10154
F1.0
sI10158
F1.0
sI10169
F1.0
sI10170
F1.0
sI10175
F1.0
sI10177
F1.0
sI10206
F0.5
sI10208
F0.4736502040947644
sI10211
F0.45
sI10212
F0.5
sI10213
F0.505
sI10217
F0.45
sI10221
F0.5
sI10223
F0.5
sI10224
F0.5346428361673308
sI10225
F0.45
sI10227
F0.45
sI10229
F0.5
sI10231
F0.55
sI10235
F0.4460440262785013
sI10239
F0.5
sI10241
F0.5
sI10250
F0.5
sI10251
F0.45
sI10253
F0.37978127230603054
sI10256
F0.29524500000000004
sI10257
F0.5
sI10258
F0.5
sI10260
F0.5
sI10261
F0.5
sI10263
F0.5
sI10265
F0.0
sI10267
F0.5
sI10269
F0.5
sI10271
F0.0
sI10275
F0.5
sI10276
F0.5221
sI10279
F0.5
sI10281
F0.5
sI10282
F0.5
sI10289
F0.44955
sI10293
F0.486850257
sI10295
F0.45438934499999994
sI10304
F0.405
sI10305
F0.5841978883533551
sI10307
F0.6355000000000001
sI10310
F1.0
sI10311
F0.6355000000000001
sI10312
F1.0
sI10322
F0.36450000000000005
sI10334
F0.29524500000000004
sI10338
F0.45
sI10340
F0.0
sI10341
F0.45
sI10343
F0.0
sI10347
F0.5
sI10348
F1.0
sI10356
F0.36450000000000005
sI10358
F0.0
sI10359
F0.6355000000000001
sI10360
F1.0
sI10362
F1.0
sI10368
F0.10150404285940941
sI10369
F0.0720729464738743
sI10371
F0.08287741354707621
sI10373
F0.35959078387349996
sI10375
F0.40859054215688456
sI10377
F0.10024745132716606
sI10379
F0.8062897554999999
sI10382
F0.035275483608168505
sI10383
F0.7847663949999999
sI10384
F0.250413429120097
sI10387
F0.0
sI10389
F0.0
sI10395
F0.03973509389333481
sI10397
F0.4384528228006592
sI10400
F0.17433922005
sI10401
F0.10003962085948984
sI10402
F0.06370615610622955
sI10406
F0.11570921930975926
sI10410
F0.10000329455903124
sI10412
F0.8587852317595001
sI10413
F0.0
sI10418
F0.0
sI10420
F0.0
sI10423
F0.48195
sI10425
F0.486
sI10426
F0.405
sI10431
F0.7847663949999999
sI10432
F0.45
sI10434
F0.405
sI10436
F0.0
sI10438
F0.6355000000000001
sI10444
F0.0
sI10451
F0.45
sI10455
F0.5
sI10457
F0.5
sI10466
F1.0
sI10467
F0.45
sI10469
F0.5
sI10472
F0.36450000000000005
sI10473
F0.5
sI10474
F0.5
sI10484
F0.45
sI10496
F0.29524500000000004
sI10500
F0.5
sI10502
F0.0
sI10503
F0.45
sI10505
F0.0
sI10509
F0.5
sI10510
F0.5
sI10518
F1.0
sI10521
F0.41295035695500004
sI10522
F0.32805000000000006
sI10524
F0.32805000000000006
sI10526
F0.0
sI10528
F0.5
sI10538
F0.405
sI10550
F0.5
sI10554
F0.45
sI10556
F0.0
sI10590
F0.32805000000000006
sI10592
F0.0
sI10602
F0.32805000000000006
sI10604
F0.0
sI10608
F0.5950000000000001
sI10609
F1.0
sI10611
F0.044090985126798626
sI10613
F0.5950000000000001
sI10616
F0.23914845
sI10617
F0.55
sI10618
F0.29524500000000004
sI10622
F1.0
sI10626
F1.0
sI10629
F0.0
sI10634
F0.0
sI10636
F0.0
sI10640
F0.37755000000000005
sI10644
F0.07504731764849956
sI10646
F0.55
sI10655
F1.0
sI10658
F0.0
sI10662
F0.0
sI10665
F0.5950000000000001
sI10666
F0.45
sI10668
F0.405
sI10670
F0.0
sI10672
F0.6355000000000001
sI10674
F1.0
sI10681
F1.0
sI10684
F0.0
sI10686
F0.0
sI10692
F0.5050316464099851
sI10693
F0.4986
sI10695
F0.5
sI10697
F0.5
sI10699
F0.5
sI10701
F0.46506276347103886
sI10703
F0.4809764597760691
sI10706
F0.405
sI10707
F0.5
sI10708
F0.505
sI10711
F0.5
sI10713
F0.5
sI10714
F0.5
sI10719
F0.499953439
sI10721
F0.4981957470469862
sI10724
F0.4861479604698623
sI10725
F0.5
sI10726
F0.5
sI10730
F0.4462700214916485
sI10734
F0.5
sI10736
F0.38667364427731904
sI10737
F0.5
sI10738
F0.5
sI10740
F0.45
sI10742
F0.5
sI10744
F0.5
sI10747
F0.5
sI10749
F0.5
sI10750
F0.5
sI10755
F0.5
sI10756
F0.5
sI10758
F0.5
sI10760
F0.0
sI10762
F0.6355000000000001
sI10768
F0.5
sI10773
F0.5290255
sI10775
F0.5950000000000001
sI10778
F1.0
sI10779
F0.5950000000000001
sI10780
F1.0
sI10784
F0.405
sI10788
F0.459793807484923
sI10790
F0.32225990489884054
sI10791
F0.67195
sI10792
F1.0
sI10794
F1.0
sI10802
F0.42861677441103185
sI10806
F0.41111783074404323
sI10808
F0.22130241358494734
sI10817
F0.09892247363356942
sI10818
F0.5
sI10820
F0.6355000000000001
sI10823
F1.0
sI10824
F0.55
sI10825
F1.0
sI10827
F0.55
sI10828
F1.0
sI10830
F1.0
sI10836
F0.5
sI10838
F0.0
sI10842
F0.5950000000000001
sI10843
F1.0
sI10849
F1.0
sI10855
F0.4779
sI10857
F0.47061
sI10858
F0.32805000000000006
sI10863
F0.10000134149345882
sI10864
F0.03589489938459262
sI10866
F0.0700198235747195
sI10868
F0.33485113373648057
sI10870
F0.14665266442978162
sI10876
F0.0
sI10881
F0.478305
sI10882
F0.0675425858836496
sI10884
F0.29524500000000004
sI10886
F0.3614796046986228
sI10888
F0.3624396711268731
sI10890
F0.10000037881444064
sI10892
F0.10000219951375244
sI10895
F0.09999999941970118
sI10896
F0.1
sI10897
F0.09999999999999995
sI10900
F0.0
sI10902
F0.0
sI10912
F0.0
sI10918
F0.0
sI10920
F0.0
sI10935
F0.6822990755692804
sI10936
F0.5
sI10938
F0.500453029178605
sI10940
F0.500905
sI10942
F0.5950000000000001
sI10944
F0.6285919800457078
sI10946
F0.67195
sI10949
F0.5115513123219182
sI10950
F0.7608515499999999
sI10951
F0.5
sI10954
F0.6355000000000001
sI10956
F0.49666294402147976
sI10957
F0.4920317322169917
sI10962
F0.5
sI10964
F0.5
sI10967
F0.5000049214483279
sI10968
F0.5
sI10969
F0.5
sI10973
F0.5
sI10977
F0.5
sI10979
F0.5
sI10980
F0.5
sI10981
F0.5
sI10983
F0.4871347883016873
sI10985
F0.49959015229097814
sI10987
F0.5
sI10990
F0.55
sI10992
F0.5014
sI10993
F0.5095000000000001
sI10998
F0.67195
sI10999
F0.5
sI11001
F0.5
sI11003
F0.55
sI11005
F0.8062897554999999
sI11011
F0.55
sI11016
F0.8021457780521184
sI11018
F0.827873404736052
sI11021
F0.4604310718665377
sI11022
F0.82566077995
sI11023
F1.0
sI11027
F0.5
sI11031
F0.5
sI11033
F0.5950000000000001
sI11034
F0.8587852317595001
sI11035
F1.0
sI11037
F0.1468666288141617
sI11039
F0.1295544757840834
sI11045
F0.505
sI11049
F0.5
sI11051
F0.55
sI11060
F0.5
sI11061
F0.505
sI11063
F0.5
sI11066
F0.10117553360994941
sI11067
F0.5
sI11068
F1.0
sI11070
F0.8062897554999999
sI11071
F1.0
sI11073
F0.5
sI11075
F0.5
sI11079
F0.5
sI11081
F0.5
sI11084
F0.5
sI11085
F0.5
sI11086
F1.0
sI11091
F0.704755
sI11092
F1.0
sI11098
F0.49966002150808464
sI11100
F0.5638129936083166
sI11101
F0.48532099542776963
sI11106
F0.8062897554999999
sI11107
F0.5
sI11109
F0.63752572886311
sI11111
F0.7342795
sI11113
F0.0
sI11119
F0.42148288995292477
sI11124
F0.500005
sI11125
F0.5
sI11127
F0.49868999999999997
sI11129
F0.49866533974633565
sI11131
F0.0
sI11133
F0.10381461587734622
sI11135
F0.55
sI11138
F0.18170013255803874
sI11139
F0.0
sI11143
F0.5
sI11145
F0.4373876330168737
sI11146
F0.2657205
sI11155
F0.5
sI11161
F0.5
sI11163
F0.7342795
sI11164
F1.0
sI11178
F0.505
sI11180
F0.55
sI11183
F0.5
sI11184
F0.5
sI11185
F0.5
sI11189
F1.0
sI11193
F1.0
sI11196
F0.5
sI11197
F0.5
sI11199
F0.489191805
sI11201
F0.4995271
sI11203
F0.5
sI11207
F0.5
sI11211
F0.5
sI11213
F0.5
sI11222
F1.0
sI11223
F0.5
sI11225
F0.5
sI11228
F0.4959015229097816
sI11229
F0.55
sI11230
F0.5
sI11232
F0.55
sI11233
F0.5
sI11235
F0.5
sI11237
F0.5
sI11239
F0.5
sI11241
F1.0
sI11246
F1.0
sI11248
F1.0
sI11251
F0.5
sI11253
F0.5
sI11254
F0.5
sI11261
F0.8687814758146353
sI11265
F0.5
sI11267
F0.8970544339526756
sI11276
F1.0
sI11277
F0.5
sI11279
F0.8970544339526756
sI11282
F0.20797363236370162
sI11283
F0.5
sI11284
F1.0
sI11294
F1.0
sI11306
F1.0
sI11310
F1.0
sI11313
F0.505
sI11315
F0.907348990557408
sI11318
F0.32805000000000006
sI11319
F0.5
sI11320
F1.0
sI11324
F1.0
sI11328
F1.0
sI11331
F0.55
sI11332
F1.0
sI11334
F0.1042171691926897
sI11336
F0.10000000000001984
sI11340
F0.67195
sI11341
F0.10170740450709113
sI11343
F0.48758429115
sI11345
F0.5
sI11347
F0.0
sI11349
F1.0
sI11354
F1.0
sI11359
F0.478305
sI11361
F0.3993779115
sI11362
F0.0299240800603945
sI11367
F0.07504731764849956
sI11369
F0.5
sI11372
F0.4737616306036924
sI11373
F0.0
sI11378
F1.0
sI11385
F0.4779
sI11386
F0.32805000000000006
sI11388
F0.215233605
sI11390
F0.3617221020123081
sI11392
F0.0
sI11395
F0.704755
sI11397
F0.9507614548908194
sI11398
F0.45903079239487365
sI11404
F1.0
sI11406
F1.0
sI11416
F0.2549039619743684
sI11422
F0.5
sI11424
F0.5014
sI11425
F0.5095000000000001
sI11430
F0.6742486502989211
sI11431
F0.5
sI11433
F0.509462817031
sI11435
F0.4767738044751598
sI11437
F0.5
sI11443
F0.55
sI11448
F0.5
sI11449
F0.5
sI11451
F0.5
sI11453
F0.5
sI11455
F0.5
sI11457
F0.46657654519733954
sI11459
F0.49876413031
sI11462
F0.46000000000078073
sI11463
F0.5
sI11464
F0.5
sI11467
F0.5
sI11469
F0.5
sI11470
F0.505
sI11479
F0.55
sI11485
F0.5
sI11487
F0.55
sI11488
F1.0
sI11502
F0.8062897554999999
sI11503
F1.0
sI11505
F0.5
sI11507
F0.5
sI11511
F0.7381185329263755
sI11513
F0.8062897554999999
sI11516
F0.45046652945447696
sI11517
F0.7847663949999999
sI11518
F1.0
sI11523
F0.7608515499999999
sI11524
F1.0
sI11529
F0.5
sI11531
F0.5
sI11534
F0.362440000000446
sI11535
F0.5
sI11536
F1.0
sI11540
F0.5
sI11544
F0.5
sI11546
F0.5
sI11547
F0.9507614548908194
sI11548
F1.0
sI11550
F0.10144682404867159
sI11552
F0.1
sI11559
F0.5
sI11560
F1.0
sI11565
F0.7847663949999999
sI11566
F1.0
sI11568
F0.5
sI11570
F0.5950000000000001
sI11587
F0.55
sI11593
F0.5
sI11595
F0.7342795
sI11596
F1.0
sI11611
F0.55
sI11613
F0.5005
sI11614
F0.505
sI11619
F0.13199692496583837
sI11620
F0.08338590849833284
sI11622
F0.1221440444463295
sI11624
F0.10000000000000392
sI11626
F0.0
sI11632
F0.55
sI11664
F0.4952238961359585
sI11666
F0.5
sI11669
F0.5
sI11670
F0.495
sI11671
F0.5
sI11675
F0.5
sI11679
F0.45
sI11681
F0.55
sI11682
F0.5
sI11683
F0.505
sI11685
F0.49398513310326836
sI11687
F0.4668582438793483
sI11689
F0.55
sI11693
F0.5
sI11697
F0.5
sI11699
F0.5
sI11708
F0.5
sI11709
F0.5
sI11711
F0.5
sI11714
F0.38685766131276283
sI11715
F0.5
sI11716
F1.0
sI11718
F0.6212246933080141
sI11719
F0.4986
sI11721
F0.4978765
sI11723
F0.5
sI11725
F0.5
sI11727
F0.6932629303172465
sI11729
F0.7608515499999999
sI11732
F0.5
sI11733
F0.7608515499999999
sI11734
F0.45
sI11737
F0.67195
sI11739
F0.47551783282709176
sI11740
F0.3929601417478076
sI11747
F0.5
sI11751
F0.5
sI11753
F0.5
sI11762
F1.0
sI11763
F0.5
sI11765
F0.5
sI11768
F0.10064585713951399
sI11769
F0.5
sI11770
F1.0
sI11780
F0.5
sI11792
F0.5
sI11796
F0.45
sI11798
F0.0
sI11799
F0.5
sI11801
F0.5
sI11804
F0.46000267998223765
sI11805
F0.5
sI11806
F1.0
sI11810
F1.0
sI11814
F1.0
sI11817
F0.55
sI11818
F1.0
sI11820
F0.38156610394664864
sI11822
F0.10001953707051257
sI11826
F0.13819446927845572
sI11827
F0.09879427726618462
sI11829
F0.13409948410988512
sI11831
F0.3327516657873445
sI11833
F0.0
sI11835
F0.10125079905959962
sI11837
F0.7847663949999999
sI11840
F0.14857301601111644
sI11841
F0.0
sI11845
F0.7608515499999999
sI11847
F0.21264842984624527
sI11848
F0.23305165306024175
sI11853
F0.09269222556508035
sI11855
F0.10001145241048669
sI11858
F0.1000010105539126
sI11859
F0.0
sI11864
F0.054061203964816104
sI11870
F0.0
sI11871
F0.67195
sI11872
F1.0
sI11874
F0.1553895029008967
sI11876
F0.10000000000007647
sI11881
F0.4905
sI11883
F0.4581472043335186
sI11884
F0.36450000000000005
sI11889
F0.7608515499999999
sI11890
F0.45
sI11892
F0.3875266395
sI11894
F0.7608515499999999
sI11896
F0.0
sI11902
F0.10325716189877393
sI11909
F0.5
sI11913
F0.5
sI11915
F0.5
sI11924
F1.0
sI11925
F0.5
sI11927
F0.5
sI11930
F0.3932799208901589
sI11931
F0.5
sI11932
F0.5
sI11942
F0.5
sI11954
F0.5
sI11958
F0.5
sI11960
I0
sI11961
F0.5046733678357048
sI11963
F0.5950000000000001
sI11966
F0.5
sI11967
F0.5950000000000001
sI11968
F0.5
sI11972
F1.0
sI11976
F1.0
sI11979
F0.4252882849950075
sI11980
F0.35890003324922337
sI11982
F0.34252951005410276
sI11984
F0.34551307270899995
sI11986
F0.55
sI11996
F0.45
sI12008
F0.45
sI12012
F0.5
sI12014
F0.0
sI12044
F0.5225779
sI12048
F0.5
sI12050
F0.6355000000000001
sI12059
F1.0
sI12060
F0.3361364526032431
sI12062
F0.19121658273576395
sI12065
F0.09999999999999995
sI12066
F0.704755
sI12067
F1.0
sI12069
F0.053665955417511964
sI12071
F0.55
sI12074
F0.16029935698406306
sI12075
F0.0
sI12080
F1.0
sI12087
F0.10320512807769043
sI12088
F0.08915790261446782
sI12090
F0.10040757515096463
sI12092
F0.1
sI12094
F0.0
sI12098
F0.07705718510918057
sI12104
F0.0
sI12114
F0.08338590849833284
sI12116
F0.42399999999999993
sI12119
F0.09999999999999995
sI12120
F0.0
sI12123
F0.5950000000000001
sI12124
F0.07504731764849956
sI12126
F0.4039141175623786
sI12128
F0.9249526823515004
sI12130
F0.0
sI12132
F1.0
sI12137
F1.0
sI12142
F0.10000053462118452
sI12144
F0.1
sI12145
F0.09999999999999995
sI12150
F0.6384761646679268
sI12151
F0.505
sI12153
F0.4995
sI12155
F0.5
sI12157
F0.5
sI12159
F0.49977
sI12161
F0.5950000000000001
sI12164
F0.4240012880427433
sI12165
F0.8587852317595001
sI12166
F0.5
sI12169
F0.55
sI12171
F0.5200280766999998
sI12172
F0.5721834339999999
sI12177
F0.5
sI12179
F0.4897406664287468
sI12182
F0.46000000000121893
sI12183
F0.5
sI12184
F1.0
sI12188
F0.46406018175390995
sI12192
F0.45
sI12194
F0.55
sI12195
F0.5
sI12196
F1.0
sI12198
F0.5
sI12200
F0.33577535987943186
sI12205
F0.5
sI12207
F0.493705
sI12208
F0.45
sI12213
F0.7342795
sI12214
F0.5
sI12216
F0.45
sI12218
F0.5
sI12220
F0.5
sI12226
F0.67195
sI12231
F0.7218869994841353
sI12233
F0.7847663949999999
sI12236
F0.5
sI12237
F0.8062897554999999
sI12238
F1.0
sI12242
F1.0
sI12246
F1.0
sI12249
F0.8970544339526756
sI12250
F1.0
sI12252
F0.14656438460670948
sI12254
F0.10045340592484087
sI12260
F0.46593026600562076
sI12264
F0.5
sI12266
F0.55
sI12275
F1.0
sI12276
F0.5
sI12278
F0.28653564702529355
sI12281
F0.09999999999999995
sI12282
F0.5
sI12283
F1.0
sI12285
F0.7847663949999999
sI12286
F1.0
sI12288
F0.5095000000000001
sI12290
F0.55
sI12294
F1.0
sI12299
F1.0
sI12301
F1.0
sI12306
F0.7342795
sI12307
F1.0
sI12313
F0.5950000000000001
sI12315
F0.129681102251118
sI12316
F0.08523892868718466
sI12321
F0.4779
sI12322
F0.32805000000000006
sI12324
F0.0675425858836496
sI12326
F0.1000025430943988
sI12328
F0.0
sI12334
F0.8062897554999999
sI12339
F0.67195
sI12340
F1.0
sI12342
F0.1264088965626893
sI12344
F0.1
sI12348
F0.0675425858836496
sI12350
F0.25183008963909986
sI12353
F0.09999999999999995
sI12354
F0.0
sI12360
F0.8970544339526756
sI12361
F1.0
sI12370
F0.0
sI12376
F0.0
sI12378
F0.0
sI12394
F0.55
sI12396
F0.5005
sI12397
F0.505
sI12402
F0.7847663949999999
sI12403
F0.505
sI12405
F0.5
sI12407
F0.6355000000000001
sI12409
F0.5
sI12415
F0.55
sI12420
F0.5
sI12421
F0.5
sI12423
F0.5
sI12425
F0.5
sI12427
F0.5
sI12429
F0.5
sI12431
F0.5
sI12434
F0.5
sI12435
F0.5
sI12436
F0.5
sI12439
F0.5
sI12441
F0.5
sI12442
F0.5
sI12451
F0.55
sI12457
F0.55
sI12459
F0.5
sI12460
F1.0
sI12474
F0.8062897554999999
sI12475
F1.0
sI12477
F0.4938425740552468
sI12479
F0.46568341197011653
sI12483
F0.5
sI12485
F0.5
sI12488
F0.405
sI12489
F0.5
sI12490
F1.0
sI12495
F0.7342795
sI12496
F1.0
sI12501
F0.5
sI12503
F0.55
sI12506
F0.41545994566751565
sI12507
F0.5
sI12508
F1.0
sI12512
F0.5
sI12516
F0.5
sI12518
F0.5
sI12519
F0.55
sI12520
F1.0
sI12522
F0.5
sI12524
F0.9166140915016672
sI12531
F0.5
sI12532
F1.0
sI12537
F0.5
sI12538
F1.0
sI12540
F0.5
sI12542
F0.0
sI12559
F0.5
sI12565
F0.5950000000000001
sI12567
F0.704755
sI12568
F1.0
sI12583
F0.5
sI12585
F0.5
sI12586
F0.5
sI12591
F0.55
sI12592
F0.45
sI12594
F0.5
sI12596
F0.704755
sI12598
F0.0
sI12604
F0.0
sI12636
F0.55
sI12637
F0.5
sI12639
F0.5
sI12641
F0.5
sI12643
F0.55
sI12645
F1.0
sI12650
F1.0
sI12652
F1.0
sI12655
F0.5
sI12657
F0.5
sI12658
F0.5
sI12663
F0.5
sI12665
F0.5
sI12668
F0.5
sI12669
F0.5
sI12670
F0.5
sI12674
F1.0
sI12678
F1.0
sI12681
F0.5
sI12682
F0.5
sI12684
F0.5
sI12686
F0.5
sI12688
F0.5
sI12691
F0.5
sI12693
F0.5
sI12694
F0.5
sI12700
F1.0
sI12702
F1.0
sI12712
F0.5
sI12717
F0.5
sI12719
F0.885616037725195
sI12722
F0.405
sI12723
F0.5
sI12724
F1.0
sI12728
F1.0
sI12732
F1.0
sI12735
F0.5950000000000001
sI12736
F1.0
sI12738
F0.5
sI12740
F0.8062897554999999
sI12746
F1.0
sI12750
F1.0
sI12761
F1.0
sI12762
F1.0
sI12767
F1.0
sI12769
F1.0
sI12771
F0.55
sI12772
F1.0
sI12774
F0.5
sI12776
F0.0
sI12780
F1.0
sI12787
F1.0
sI12792
F0.8062897554999999
sI12793
F1.0
sI12799
F0.55
sI12801
F0.5
sI12802
F0.405
sI12808
F1.0
sI12810
F1.0
sI12820
F0.0
sI12825
F0.5
sI12826
F0.5
sI12828
F0.45
sI12830
F0.55
sI12832
F0.0
sI12834
F1.0
sI12839
F1.0
sI12844
F0.0
sI12846
F0.0
sI12856
F0.55
sI12865
F1.0
sI12883
F0.55
sI12889
F0.87290670858355
sI12891
F0.5
sI12892
F1.0
sI12907
F0.5
sI12909
F0.5
sI12910
F0.5
sI12915
F0.5018050000000001
sI12916
F0.5180500000000001
sI12918
F0.495468559
sI12920
F0.45468559
sI12922
F0.5950000000000001
sI12928
F0.5
sI12963
F0.5
sI12964
F1.0
sI12969
F0.7847663949999999
sI12970
F1.0
sI12972
F0.5
sI12974
F0.3044954615984826
sI12987
F0.55
sI12988
F1.0
sI12990
F0.47838658288790065
sI12992
F0.21957439213219196
sI12996
F0.4876190320754504
sI12998
F0.37619032075450387
sI13001
F0.09797244404095548
sI13002
F0.5
sI13003
F1.0
sI13008
F0.9641051006154073
sI13009
F1.0
sI13026
F0.5
sI13027
F1.0
sI13072
F0.55
sI13078
F0.5950000000000001
sI13080
F0.7608515499999999
sI13081
F1.0
sI13123
F0.5072900854640732
sI13125
F0.5072903899899198
sI13126
F0.49863048796553794
sI13131
F0.6278473124325675
sI13132
F0.5
sI13134
F0.505
sI13136
F0.5
sI13138
F0.5
sI13144
F0.48986529639618287
sI13149
F0.5037472074443636
sI13150
F0.5
sI13152
F0.5
sI13154
F0.5
sI13156
F0.5
sI13158
F0.50005
sI13160
F0.5
sI13163
F0.5
sI13164
F0.5
sI13165
F0.5
sI13168
F0.55
sI13170
F0.5
sI13171
F0.45
sI13180
F0.55
sI13186
F0.67195
sI13188
F0.5
sI13189
F1.0
sI13203
F0.5342039714706731
sI13204
F0.46877539687426784
sI13206
F0.5
sI13208
F0.55
sI13210
F0.53789152237759
sI13212
F0.49893957718411963
sI13214
F0.5
sI13217
F0.5
sI13218
F0.5
sI13219
F0.505
sI13222
F0.1729306605187552
sI13224
F0.907348990557408
sI13225
F0.10001953588364959
sI13230
F0.5026603598182884
sI13232
F0.67195
sI13235
F0.5
sI13236
F0.55
sI13237
F0.505
sI13241
F0.5
sI13245
F0.5
sI13247
F0.5
sI13248
F0.9452905054342439
sI13249
F0.08338590849833284
sI13251
F0.45
sI13253
F0.55
sI13255
F0.55
sI13258
F0.5
sI13260
F0.7608515499999999
sI13261
F0.5
sI13266
F0.5
sI13267
F0.5
sI13269
F0.5
sI13271
F0.5
sI13273
F0.5
sI13279
F0.55
sI13288
F0.8587852317595001
sI13294
F0.67195
sI13296
F0.67195
sI13297
F1.0
sI13312
F0.704755
sI13314
F0.5040208
sI13315
F0.5290255
sI13320
F0.5014
sI13321
F0.5095000000000001
sI13323
F0.5
sI13325
F0.0
sI13327
F0.55
sI13333
F0.5950000000000001
sI13365
F0.5222371878279636
sI13366
F0.49873582588646903
sI13368
F0.4985595089739092
sI13370
F0.5
sI13372
F0.5005
sI13374
F0.4960262442269583
sI13376
F0.4989721105
sI13379
F0.45
sI13380
F0.5
sI13381
F0.5
sI13384
F0.5004963817519964
sI13386
F0.5
sI13387
F0.4892589837133472
sI13392
F0.49961448253072915
sI13394
F0.55
sI13397
F0.5
sI13398
F0.5950000000000001
sI13399
F0.505
sI13403
F0.45
sI13407
F0.5
sI13409
F0.5
sI13410
F0.55
sI13411
F0.505
sI13413
F0.5
sI13415
F0.5
sI13417
F0.5
sI13420
F0.5005
sI13422
F0.5
sI13423
F0.505
sI13428
F0.5
sI13429
F0.5
sI13431
F0.5
sI13433
F0.5
sI13435
F0.5
sI13441
F0.4997763503992737
sI13446
F0.5344503257146233
sI13448
F0.55
sI13451
F0.5
sI13452
F0.7847663949999999
sI13453
F0.505
sI13457
F0.5290255
sI13461
F0.505
sI13463
F0.5950000000000001
sI13464
F0.9828315808985374
sI13465
F0.16427567077493904
sI13467
F0.505
sI13469
F0.5950000000000001
sI13471
F0.7847663949999999
sI13475
F1.0
sI13479
F1.0
sI13490
F1.0
sI13491
F1.0
sI13496
F1.0
sI13498
F1.0
sI13500
F0.5008350598250675
sI13501
F0.49968320712876346
sI13503
F0.50265
sI13505
F0.5
sI13507
F0.5005
sI13509
F0.4987575000000001
sI13511
F0.55
sI13514
F0.5
sI13515
F0.8587852317595001
sI13516
F0.5
sI13519
F0.1155695523606387
sI13521
F0.7608515499999999
sI13522
F0.10429726932723687
sI13528
F0.48280797731650776
sI13530
F0.4895812555547699
sI13531
F0.45707001156791294
sI13536
F0.20734725940827656
sI13537
F0.23233912318987984
sI13539
F0.017076249239901455
sI13541
F0.0
sI13543
F0.10000002890145815
sI13549
F0.37561454935621214
sI13554
F0.46832572137234924
sI13555
F0.43870952896864246
sI13557
F0.45
sI13559
F0.0
sI13561
F0.55
sI13563
F0.04151860460407232
sI13565
F0.0
sI13569
F0.495
sI13570
F0.03205723617943017
sI13573
F0.5950000000000001
sI13575
F0.5
sI13576
F0.235325322495
sI13585
F0.55
sI13591
F0.9874842224750338
sI13593
F0.5950000000000001
sI13594
F1.0
sI13612
F0.5950000000000001
sI13618
F0.55
sI13620
F0.5
sI13621
F1.0
sI13636
F0.5
sI13638
F0.5
sI13639
F0.5
sI13644
F0.5005
sI13645
F0.505
sI13647
F0.5
sI13649
F0.5
sI13651
F0.5
sI13657
F0.0
sI13690
F0.5
sI13692
F0.55
sI13693
F0.5
sI13698
F0.6355000000000001
sI13699
F0.5
sI13701
F0.5
sI13703
F0.5
sI13705
F0.55
sI13711
F0.0
sI13716
F0.4973985981828835
sI13717
F0.5
sI13719
F0.45
sI13721
F0.55
sI13723
F0.5
sI13725
F0.5059359818288351
sI13727
F0.55
sI13730
F0.5
sI13731
F0.55
sI13732
F0.5
sI13735
F0.0
sI13737
F0.0
sI13747
F0.5
sI13753
F0.5
sI13755
F0.5
sI13756
F1.0
sI13801
F0.5950000000000001
sI13807
F0.55
sI13809
F0.55
sI13810
F1.0
sI13851
F0.5724834992551946
sI13852
F0.5157588295000001
sI13854
F0.499995
sI13856
F0.495
sI13858
F0.55
sI13860
F0.6767133217122554
sI13862
F0.704755
sI13865
F0.5
sI13866
F0.67195
sI13867
F0.5
sI13870
F0.5950000000000001
sI13872
F0.49995
sI13873
F0.46219499999999997
sI13878
F0.5
sI13880
F0.495
sI13883
F0.45
sI13884
F0.5
sI13885
F1.0
sI13889
F0.5
sI13893
F0.5
sI13895
F0.5
sI13896
F0.5
sI13897
F1.0
sI13899
F0.5
sI13901
F0.5
sI13906
F0.50221
sI13908
F0.5
sI13909
F0.4994137
sI13914
F0.704755
sI13915
F0.5135500000000001
sI13917
F0.5
sI13919
F0.5
sI13921
F0.55
sI13927
F0.494137
sI13932
F0.5045511620945627
sI13934
F0.5950000000000001
sI13937
F0.5
sI13938
F0.6355000000000001
sI13939
F0.5893467406709502
sI13943
F1.0
sI13947
F1.0
sI13950
F0.4659199564434896
sI13951
F0.07097993833396979
sI13953
F0.404595
sI13955
F0.704755
sI13957
F0.67195
sI13961
F0.5
sI13965
F0.505
sI13967
F0.5
sI13976
F1.0
sI13977
F0.32805000000000006
sI13979
F0.55
sI13982
F0.5
sI13983
F0.55
sI13984
F1.0
sI13986
F0.55
sI13987
F0.49905
sI13989
F0.5
sI13991
F0.5
sI13993
F0.6355000000000001
sI13995
F1.0
sI14000
F1.0
sI14002
F1.0
sI14005
F0.4800235534086201
sI14007
F0.55
sI14008
F0.3857355340862009
sI14014
F0.6355000000000001
sI14016
F0.5427724661016851
sI14017
F0.6046041198164501
sI14022
F0.7090087005454757
sI14023
F0.7726190777143217
sI14025
F0.405
sI14027
F0.0
sI14029
F0.843094701955
sI14035
F0.7342795
sI14040
F0.7608515499999999
sI14041
F1.0
sI14043
F0.405
sI14045
F0.0
sI14049
F0.5
sI14051
F0.0
sI14055
F0.5
sI14056
F1.0
sI14061
F0.7847663949999999
sI14062
F1.0
sI14071
F0.704755
sI14077
F0.82566077995
sI14079
F0.5
sI14080
F1.0
sI14094
F0.49967559043757653
sI14096
F0.5
sI14099
F0.5
sI14100
F0.50095
sI14101
F0.5
sI14105
F0.5
sI14109
F0.5095000000000001
sI14111
F0.55
sI14112
F0.5
sI14113
F0.5
sI14115
F0.5
sI14117
F0.5
sI14119
F0.5
sI14123
F0.5
sI14127
F0.5
sI14129
F0.5
sI14138
F0.5
sI14139
F0.5
sI14141
F0.5
sI14144
F0.5
sI14145
F0.5
sI14146
F1.0
sI14148
F0.4999951
sI14149
F0.5
sI14151
F0.5
sI14153
F0.5
sI14155
F0.5
sI14157
F0.499951
sI14159
F0.5
sI14162
F0.5
sI14163
F0.55
sI14164
F0.5
sI14167
F0.49951
sI14169
F0.5
sI14170
F0.4574021001118628
sI14177
F0.505
sI14181
F0.5
sI14183
F0.5
sI14192
F1.0
sI14193
F0.436249163045248
sI14195
F0.55
sI14198
F0.5
sI14199
F0.55
sI14200
F0.505
sI14210
F1.0
sI14222
F1.0
sI14226
F1.0
sI14229
F0.48665707611116094
sI14231
F0.55
sI14234
F0.5095000000000001
sI14235
F0.55
sI14236
F0.505
sI14240
F1.0
sI14244
F1.0
sI14247
F0.32157076111160937
sI14248
F0.10022576853112837
sI14250
F0.2367138887092033
sI14252
F0.907348990557408
sI14254
F0.10000000004405636
sI14256
F0.490272930649546
sI14257
F0.4608234467772455
sI14259
F0.405
sI14261
F0.0
sI14263
F0.55
sI14265
F0.015169432199869961
sI14267
F0.0
sI14271
F0.5
sI14272
F0.010207456611988278
sI14275
F0.55
sI14277
F0.11380041594407533
sI14278
F0.10451496157639628
sI14283
F0.40905
sI14285
F0.0
sI14289
F0.5
sI14290
F1.0
sI14298
F0.45
sI14300
I0
sI14301
F0.55
sI14302
F1.0
sI14304
F0.08338590849833284
sI14306
F0.0
sI14311
F0.3946221947111403
sI14313
F0.10556563857920404
sI14314
F0.1011245946917555
sI14319
F0.47349279
sI14320
F0.30033375893051106
sI14322
F0.09265100944259205
sI14324
F0.0
sI14326
F0.15615881787331226
sI14332
F0.10000000633078039
sI14338
F0.55
sI14340
F0.5
sI14341
F0.5
sI14346
F0.704755
sI14347
F0.5
sI14349
F0.5
sI14351
F0.5
sI14353
F0.5
sI14359
F0.0
sI14364
F0.55
sI14365
F1.0
sI14367
F0.5
sI14369
F0.5
sI14373
F0.505
sI14375
F0.5
sI14378
F0.5
sI14379
F0.55
sI14380
F1.0
sI14385
I0
sI14395
F0.5
sI14401
F0.55
sI14403
F0.5
sI14404
F1.0
sI14418
F0.8062897554999999
sI14419
F0.505
sI14421
F0.5
sI14423
F0.55
sI14425
F0.67195
sI14427
F1.0
sI14432
F1.0
sI14434
F1.0
sI14437
F0.0
sI14439
F0.0
sI14445
F0.5
sI14447
F0.5
sI14450
F0.5
sI14451
F0.5
sI14452
F1.0
sI14456
F1.0
sI14460
F1.0
sI14463
F0.0
sI14468
F0.0
sI14473
F0.55
sI14475
F0.5
sI14476
F0.5
sI14482
F1.0
sI14484
F1.0
sI14494
F0.0
sI14503
F0.67195
sI14509
F0.8062897554999999
sI14511
F0.55
sI14512
F1.0
sI14529
F0.843094701955
sI14530
F1.0
sI14535
F0.5
sI14536
F1.0
sI14538
F0.5
sI14540
F0.0
sI14584
F0.55
sI14590
F0.5
sI14592
F0.5
sI14593
F1.0
sI14608
F0.5
sI14610
F0.5
sI14611
F0.5
sI14616
F0.495
sI14617
F0.5
sI14619
F0.45
sI14621
F0.5
sI14623
F0.5
sI14629
F0.5
sI14662
F0.4920505227365836
sI14664
F0.55
sI14665
F0.45
sI14670
F0.4976756745842755
sI14671
F0.36450000000000005
sI14673
F0.45
sI14675
F0.5
sI14677
F0.495
sI14683
F0.5950000000000001
sI14688
F0.5950000000000001
sI14689
F0.405
sI14691
F0.5
sI14693
F0.5
sI14695
F0.5
sI14697
F0.405
sI14699
F0.5
sI14702
F0.5
sI14703
F0.5
sI14704
F0.5
sI14707
F0.5
sI14709
F0.5
sI14710
F0.5
sI14719
F0.5
sI14725
F0.5
sI14727
F0.5
sI14728
F1.0
sI14773
F0.5950000000000001
sI14779
F0.6355000000000001
sI14781
F0.55
sI14782
F1.0
sI14824
F0.4875729311321637
sI14826
F0.5
sI14827
F0.5
sI14832
F0.47992811630369037
sI14833
F0.45
sI14835
F0.405
sI14837
F0.5
sI14839
F0.5
sI14845
F0.5
sI14850
F0.55
sI14851
F0.405
sI14853
F0.5
sI14855
F0.5
sI14857
F0.5
sI14859
F0.45
sI14861
F0.5
sI14864
F0.5
sI14865
F0.5
sI14866
F0.5
sI14869
F0.5
sI14871
F0.5
sI14872
F0.5
sI14881
F0.5
sI14887
F0.5
sI14889
F0.5
sI14890
F1.0
sI14904
F0.55
sI14905
F0.405
sI14907
F0.5
sI14909
F0.5
sI14911
F0.5
sI14913
F0.45
sI14915
F0.55
sI14918
F0.5
sI14919
F0.5
sI14920
F0.45
sI14923
F0.6355000000000001
sI14925
F0.55
sI14926
F0.5
sI14931
F1.0
sI14936
F1.0
sI14938
F1.0
sI14942
F1.0
sI14946
F1.0
sI14950
F1.0
sI14952
F1.0
sI14959
F0.49683207128763446
sI14961
F0.55
sI14962
F0.5
sI14967
F0.478305
sI14968
F0.45
sI14970
F0.405
sI14972
I0
sI14974
F0.5
sI14980
F0.9507614548908194
sI14989
F0.55
sI14995
F0.9764493565137687
sI14997
F0.55
sI14998
F1.0
sI15013
F0.3591391812283579
sI15015
F0.5
sI15016
F0.2657205
sI15021
F0.47385
sI15022
F0.23914845
sI15024
F0.36450000000000005
sI15026
F0.0
sI15028
F0.30938899334497916
sI15034
F0.0
sI15097
F0.5
sI15103
F0.5
sI15105
F0.5
sI15106
F1.0
sI15151
F0.5
sI15157
F0.5
sI15159
F0.704755
sI15160
F1.0
sI15175
F0.495
sI15177
F0.5
sI15178
F0.45
sI15183
F0.48870490914417564
sI15184
F0.45
sI15186
F0.405
sI15188
F0.6355000000000001
sI15190
F0.5
sI15196
I0
sI15309
F0.513184042844697
sI15310
F0.49990449742160936
sI15312
F0.5041318538528579
sI15314
F0.55
sI15316
F0.5
sI15318
F0.4995
sI15320
F0.495
sI15323
F0.5
sI15324
F0.5008508146979811
sI15325
F0.5
sI15328
F0.5
sI15330
F0.55
sI15331
F0.405
sI15336
F0.49997871077014855
sI15338
F0.5
sI15341
F0.5
sI15342
F0.5
sI15343
F0.5
sI15347
F0.45
sI15351
F0.5
sI15353
F0.5
sI15354
F0.5
sI15355
F0.5
sI15357
F0.5
sI15359
F0.5
sI15361
F0.5
sI15364
F0.49864423031609334
sI15366
F0.5950000000000001
sI15367
F0.5
sI15372
F0.5
sI15373
F0.5
sI15375
F0.5
sI15377
F0.5
sI15379
F0.5
sI15385
F0.5
sI15390
F0.5026112581558562
sI15392
F0.704755
sI15395
F1.0
sI15396
F0.4859009030892417
sI15397
F0.46375918965175345
sI15401
F0.5
sI15405
F0.47777106462023267
sI15407
F0.5950000000000001
sI15408
F0.82566077995
sI15409
F0.12546803067383955
sI15411
F1.0
sI15415
F0.12936983179810252
sI15419
F0.5
sI15423
F0.47711060414720724
sI15425
F0.5
sI15434
F0.5
sI15435
F0.405
sI15437
F0.5
sI15440
F1.0
sI15441
F0.5950000000000001
sI15442
F0.09298005438459264
sI15444
F0.5950000000000001
sI15445
F0.49995271
sI15447
F1.0
sI15451
F0.4790484841718942
sI15453
F0.5
sI15455
F0.5
sI15458
F1.0
sI15459
F0.6355000000000001
sI15460
F0.433984350271463
sI15463
F0.5
sI15466
F1.0
sI15472
F0.49693059886424507
sI15474
F0.48214806686301187
sI15475
F0.44148799786225956
sI15480
F0.49966558643923076
sI15481
F0.4896318200258272
sI15483
F0.45
sI15485
F0.0
sI15487
F0.43722912181467877
sI15493
F0.3380611216001187
sI15498
F0.49978710770148527
sI15499
F0.48862196317573564
sI15501
F0.45
sI15503
F0.0
sI15505
F0.55
sI15507
F0.45
sI15509
F0.0
sI15513
F0.5
sI15514
F0.3494736181347433
sI15517
F0.5950000000000001
sI15519
F0.5
sI15520
F0.215233605
sI15529
F0.5950000000000001
sI15535
F0.55
sI15537
F0.5
sI15538
F1.0
sI15552
F0.49960210499999996
sI15554
F0.49195
sI15557
F0.45
sI15558
F0.50041
sI15559
F0.5
sI15563
F0.4545
sI15567
F0.4995
sI15569
F0.5
sI15570
F0.5005
sI15571
F0.5
sI15573
F0.505
sI15575
F0.55
sI15577
F0.5
sI15581
F0.45
sI15585
F0.5
sI15587
F0.5
sI15596
F0.5
sI15597
F0.4995
sI15599
F0.5
sI15602
F0.5
sI15603
F0.5
sI15604
F0.5
sI15606
F0.5005
sI15607
F0.5
sI15609
F0.5042937279229074
sI15611
F0.5
sI15613
F0.5
sI15615
F0.5
sI15617
F0.5
sI15620
F0.5
sI15621
F0.5
sI15622
F0.5
sI15625
F0.5
sI15627
F0.55
sI15628
F0.5013817519963686
sI15635
F0.505
sI15639
F0.48008254760737606
sI15641
F0.55
sI15650
F0.5
sI15651
F0.505
sI15653
F0.5
sI15656
F1.0
sI15657
F0.55
sI15658
F0.14116691469866635
sI15668
F1.0
sI15680
F1.0
sI15684
F1.0
sI15687
F0.49328180079974115
sI15689
F0.55
sI15692
F1.0
sI15693
F0.4198403618997904
sI15694
F0.33812715802169396
sI15698
F0.5
sI15702
F0.3520511840133553
sI15704
F0.5950000000000001
sI15705
F0.8587852317595001
sI15706
F0.10015669334054729
sI15708
F1.0
sI15712
F0.1
sI15714
F0.15960558725647653
sI15715
F0.20458938675813698
sI15717
F0.12094898612068222
sI15719
F0.0
sI15721
F0.44306424581845805
sI15723
F0.020064679878831537
sI15725
F0.0
sI15729
F0.48195
sI15730
F0.10000001157634957
sI15733
F0.4779
sI15735
F0.43401015
sI15736
F0.215233605
sI15741
F0.10648751797281247
sI15743
F0.0
sI15747
F0.4700895004310749
sI15748
F0.355300997869385
sI15756
F0.36450000000000005
sI15758
F0.0
sI15759
F0.495
sI15760
F0.36450000000000005
sI15762
F0.29524500000000004
sI15764
F0.0
sI15766
F0.5950000000000001
sI15769
F0.37980996984996274
sI15771
F0.497937279229074
sI15772
F0.28294383439528326
sI15777
F0.1363579236630849
sI15778
F0.12312359645336526
sI15780
F0.07504731764849956
sI15782
F0.0
sI15784
F0.1
sI15790
F0.15400363264616762
sI15796
F0.5
sI15798
F0.55
sI15799
F0.5
sI15804
F0.5
sI15805
F0.5
sI15807
F0.5
sI15809
F0.5
sI15811
F0.5
sI15817
F0.0
sI15822
F0.5
sI15823
F0.5
sI15825
F0.5
sI15827
F0.5
sI15829
F0.5
sI15831
F0.5
sI15833
F0.5
sI15836
F0.5
sI15837
F0.5
sI15838
F0.5
sI15841
I0
sI15843
I0
sI15853
F0.5
sI15859
F0.5
sI15861
F0.5
sI15862
F1.0
sI15876
F0.5950000000000001
sI15877
F0.5
sI15879
F1.0
sI15883
F0.5
sI15885
F0.5095000000000001
sI15887
F0.55
sI15890
F1.0
sI15891
F0.5950000000000001
sI15892
F0.5
sI15895
F0.0
sI15903
F0.5
sI15905
F0.55
sI15908
F1.0
sI15909
F0.4362542114441751
sI15910
F0.36450000000000005
sI15914
F0.5
sI15918
F0.3620804986316798
sI15920
F0.6355000000000001
sI15921
F0.0
sI15928
F0.0
sI15931
F0.5
sI15934
F1.0
sI15939
F0.55
sI15940
F0.5
sI15942
F1.0
sI15946
F0.55
sI15961
F0.55
sI15967
F0.55
sI15969
F0.5
sI15970
F1.0
sI15985
F0.6355000000000001
sI15987
F0.5
sI15988
F0.5
sI15993
F0.5021695
sI15994
F0.521695
sI15996
F0.5
sI15998
F0.0
sI16000
F0.67195
sI16006
F0.0
sI16038
F0.4991970910403974
sI16040
F0.5
sI16043
F0.45
sI16044
F0.5028168407422339
sI16045
F0.5018624384846808
sI16049
F0.5
sI16053
F0.4967108653048017
sI16055
F0.55
sI16056
F0.4922616059656569
sI16057
F0.405
sI16059
F0.45
sI16061
F0.5
sI16063
F0.5
sI16067
F0.5
sI16071
F0.49767295455
sI16073
F0.46032704999999996
sI16082
F0.405
sI16083
F0.4545
sI16085
F0.495
sI16088
F0.45
sI16089
F0.55
sI16090
F1.0
sI16092
F0.5
sI16093
F0.48648486416093306
sI16095
F0.5
sI16097
F0.5
sI16099
F0.48908665696991066
sI16101
F0.5
sI16103
F0.5
sI16106
F0.5
sI16107
F0.55
sI16108
F0.4472586027672387
sI16111
F0.455747431738786
sI16113
F0.5
sI16114
F0.405
sI16121
F0.5
sI16125
F0.47503149029999997
sI16127
F0.5
sI16136
F1.0
sI16137
F0.36450000000000005
sI16139
F0.55
sI16142
F1.0
sI16143
F0.415350666
sI16144
F0.0675425858836496
sI16154
F0.36450000000000005
sI16166
F0.5
sI16170
F0.29524500000000004
sI16172
F0.0
sI16173
F0.5
sI16175
F0.5
sI16178
F1.0
sI16179
F0.55
sI16180
F0.427633376497625
sI16184
F1.0
sI16188
F1.0
sI16191
F0.5
sI16192
F0.36450000000000005
sI16194
F1.0
sI16198
F0.29131875999660406
sI16200
F0.1625478774341501
sI16201
F0.1363227359813857
sI16203
F0.08338590849833284
sI16205
F0.0
sI16207
F0.704755
sI16209
F0.1037281565526612
sI16211
F0.0
sI16215
F0.4603271483992765
sI16216
F0.3659653334677107
sI16219
F0.7342795
sI16221
F0.20253303035195
sI16222
F0.11263335351021578
sI16227
F0.06651991646198448
sI16229
F0.0
sI16233
F0.5950000000000001
sI16234
F1.0
sI16242
F0.36450000000000005
sI16244
F0.0
sI16245
F0.67195
sI16246
F1.0
sI16248
F0.114383962274805
sI16250
F0.0
sI16255
F0.10121405991594064
sI16257
F0.495
sI16258
F0.08338590849833284
sI16263
F0.5
sI16264
F0.07633661170799806
sI16266
F0.45
sI16268
I0
sI16270
F0.1909881183711308
sI16276
F0.42347665136903373
sI16283
F0.5
sI16287
F0.4995
sI16289
F0.5
sI16298
F0.5
sI16299
F0.49139447912402373
sI16301
F0.478305
sI16304
F0.405
sI16305
F0.48971572529511076
sI16306
F0.46162611777228896
sI16316
F0.405
sI16328
F0.405
sI16332
F0.45
sI16334
F0.0
sI16335
F0.5
sI16337
F0.5
sI16340
F0.5
sI16341
F0.5
sI16342
F0.4551323945497285
sI16346
F0.5
sI16350
F0.5
sI16352
F0.5
sI16353
F0.49953439
sI16354
F0.38852410017796585
sI16356
F0.4953439
sI16358
F0.5
sI16360
F0.29225379118292
sI16370
F0.5
sI16382
F0.45
sI16386
F0.29524500000000004
sI16388
F0.0
sI16418
F0.5
sI16422
F0.35215403465983725
sI16424
F0.55
sI16433
F1.0
sI16434
F0.24713451192660577
sI16436
F0.704755
sI16439
F1.0
sI16440
F0.12377996292204996
sI16441
F0.09999999999999995
sI16443
F0.09248300491065031
sI16445
F0.0
sI16449
F0.4430899633597346
sI16450
F0.36009506617471015
sI16458
F0.29524500000000004
sI16460
F0.0
sI16461
F0.21814585628078517
sI16462
F0.2625902537255662
sI16464
F0.026167381651368022
sI16466
F0.0
sI16468
F0.87290670858355
sI16476
F0.32805000000000006
sI16478
F0.0
sI16488
F0.07601762146075618
sI16490
F0.0
sI16494
F0.55
sI16495
F1.0
sI16497
F0.4402431
sI16498
F0.10043739941216506
sI16500
F0.09265100944259205
sI16502
F0.0
sI16504
F0.11329005133918749
sI16506
F0.062473435597427907
sI16508
F0.0
sI16512
F0.3914775776321185
sI16513
F0.09999999999999995
sI16516
F0.1
sI16518
F0.30867176258272283
sI16519
F0.09999999999999995
sI16524
F0.49000814189999997
sI16525
F0.45
sI16527
F0.4545
sI16529
F0.55
sI16531
F0.55
sI16533
F0.5080500000000001
sI16535
F0.55
sI16538
F0.5
sI16539
F0.55
sI16540
F0.5
sI16543
F0.0
sI16545
F0.0
sI16551
F0.45
sI16553
F0.5
sI16556
F0.5
sI16557
F0.55
sI16558
F1.0
sI16562
F0.5
sI16566
F0.5
sI16568
F0.5
sI16569
F0.0
sI16574
I0
sI16579
F0.5
sI16581
F0.5
sI16582
F0.45
sI16587
F0.55
sI16588
F0.5
sI16590
F0.5
sI16592
F0.5
sI16594
F0.55
sI16600
F0.0
sI16605
F0.45
sI16607
F0.5
sI16610
F1.0
sI16611
F0.5
sI16612
F0.5
sI16616
F1.0
sI16620
F1.0
sI16623
F0.0
sI16630
F0.0
sI16634
F0.5
sI16638
F0.36450000000000005
sI16640
F0.5
sI16649
F1.0
sI16652
F0.0
sI16656
F0.0
sI16659
F0.5
sI16660
F0.5
sI16662
F1.0
sI16666
F0.55
sI16668
F1.0
sI16673
F1.0
sI16675
F1.0
sI16678
F0.0
sI16687
F0.7342795
sI16689
F0.495
sI16690
F0.45
sI16695
F0.48645
sI16696
F0.45
sI16698
F0.45
sI16700
F0.0
sI16702
F0.55
sI16708
F0.0
sI16713
F0.5
sI16714
F1.0
sI16716
F0.45
sI16718
F0.0
sI16722
F0.45
sI16724
F0.0
sI16728
F0.5
sI16729
F1.0
sI16734
F0.0
sI16744
F0.0
sI16750
F0.0
sI16752
F0.0
sI16768
F0.5
sI16770
F0.55
sI16771
F0.5
sI16776
F0.5
sI16777
F0.5
sI16779
F0.5
sI16781
F0.5
sI16783
F0.49722125919975707
sI16789
F0.5
sI16794
F0.5
sI16795
F0.5
sI16797
F0.5
sI16799
F0.5
sI16801
F0.5
sI16803
F0.5
sI16805
F0.5
sI16808
F0.5
sI16809
F0.5
sI16810
F0.48868740484450524
sI16813
F0.495
sI16815
F0.5
sI16816
F0.5
sI16825
F0.5
sI16831
F0.5
sI16833
F0.5
sI16834
F1.0
sI16848
F0.704755
sI16849
F0.48234848596256047
sI16851
F1.0
sI16855
F0.410179482115439
sI16857
F0.4907057732735452
sI16859
F0.55
sI16862
F1.0
sI16863
F0.41046627672946934
sI16864
F0.3435071080205579
sI16867
F0.67195
sI16870
F1.0
sI16875
F0.505
sI16877
F0.5
sI16880
F1.0
sI16881
F0.5950000000000001
sI16882
F0.37137010415027555
sI16886
F0.5
sI16890
F0.34597011900515645
sI16892
F0.55
sI16893
F0.5
sI16894
F0.5
sI16896
F1.0
sI16900
F0.704755
sI16903
F0.5950000000000001
sI16906
F1.0
sI16911
F0.55
sI16912
F0.5
sI16914
F1.0
sI16918
F0.17567368245041726
sI16933
F0.55
sI16939
F0.5950000000000001
sI16941
F0.5
sI16942
F1.0
sI16957
F0.4174010384626503
sI16959
F0.4905
sI16960
F0.2657205
sI16965
F0.1617298303083739
sI16966
F0.144471796143967
sI16968
F0.06671772073996012
sI16970
F0.0
sI16972
F0.10000001098887905
sI16978
F0.0
sI17010
F0.5005
sI17011
F0.46122931132163697
sI17013
F0.505
sI17015
F0.5
sI17017
F0.5
sI17019
F0.4551857355137477
sI17021
F0.495
sI17024
F0.5
sI17025
F0.5
sI17026
F0.4886365992390215
sI17029
F0.5
sI17031
F0.55
sI17032
F0.5
sI17037
F0.5
sI17039
F0.55
sI17042
F0.5
sI17043
F0.5
sI17044
F0.5
sI17048
F0.45
sI17052
F0.5
sI17054
F0.5
sI17055
F0.5
sI17056
F0.45
sI17058
F0.5
sI17060
F0.5
sI17062
F0.5
sI17065
F0.5
sI17067
F0.5
sI17068
F0.5
sI17073
F0.5
sI17074
F0.5
sI17076
F0.5
sI17078
I0
sI17080
F0.422947489760245
sI17086
F0.55
sI17091
F0.5
sI17093
F0.5
sI17096
F1.0
sI17097
F0.55
sI17098
F0.3495308041743437
sI17102
F0.5
sI17106
F0.3429722916797189
sI17108
F0.5950000000000001
sI17109
F0.55
sI17110
F0.5
sI17112
F1.0
sI17116
F0.87290670858355
sI17120
F1.0
sI17124
F1.0
sI17135
F1.0
sI17136
F1.0
sI17141
F1.0
sI17143
F1.0
sI17145
F0.55
sI17146
F0.46832071287634436
sI17148
F1.0
sI17152
F0.1382071287634437
sI17154
F0.45
sI17156
F0.0
sI17160
F0.14680003547053494
sI17161
F0.09985444216570694
sI17164
F0.8970544339526756
sI17167
F1.0
sI17173
F0.11229311321636976
sI17175
F0.482805
sI17176
F0.09265100944259205
sI17181
F0.34251288885590386
sI17182
F0.1714487833577128
sI17184
F0.215233605
sI17186
F0.0
sI17188
F0.10000029633951607
sI17194
F0.0
sI17199
F0.48195
sI17200
F0.09265100944259205
sI17202
F0.32805000000000006
sI17204
F0.0
sI17206
F0.21297181459226056
sI17208
F0.0783632638381767
sI17210
F0.0
sI17214
F0.23624581371591094
sI17215
F0.09999999999999995
sI17218
F0.0
sI17220
F0.0
sI17230
F0.5950000000000001
sI17236
F0.8062897554999999
sI17238
F0.5
sI17239
F1.0
sI17257
F0.5
sI17263
F0.5
sI17265
F0.5
sI17266
F1.0
sI17281
F0.5
sI17283
F0.5
sI17284
F0.5
sI17289
F0.5
sI17290
F0.5
sI17292
F0.5
sI17294
F0.5
sI17296
F0.4232979600278041
sI17302
F0.0
sI17335
F0.55
sI17338
F1.0
sI17343
F0.55
sI17344
F0.5
sI17346
F1.0
sI17350
F0.24081887571559407
sI17361
F0.55
sI17362
F0.5
sI17364
F1.0
sI17368
F0.1603871779338268
sI17370
F0.47505454604639635
sI17372
F0.6355000000000001
sI17375
F1.0
sI17376
F0.13796241739796852
sI17377
F0.09982029897000856
sI17380
I0
sI17398
F0.5
sI17401
F1.0
sI17446
F0.5
sI17452
F0.87290670858355
sI17454
F0.704755
sI17455
F1.0
sI17500
F0.5
sI17506
F0.5
sI17508
F0.55
sI17509
F1.0
sI17524
F0.5
sI17526
F0.5
sI17527
F0.5
sI17532
F0.5
sI17533
F0.5
sI17535
F0.5
sI17537
F0.5
sI17539
F0.5
sI17545
F0.5
sI17578
F0.5
sI17580
F0.5
sI17581
F0.5
sI17586
F0.5
sI17587
F0.5
sI17589
F0.5
sI17591
F0.5
sI17593
F0.5
sI17599
F0.03830033343920703
sI17604
F0.55
sI17605
F0.5
sI17607
F0.45
sI17609
F0.55
sI17611
F0.5
sI17613
F0.5
sI17615
F0.5
sI17618
F0.5
sI17619
F0.5
sI17620
F0.5
sI17623
F0.5
sI17625
F0.9392116727047154
sI17626
F0.026167381651368022
sI17635
F0.87290670858355
sI17641
F0.5
sI17643
F0.5
sI17644
F1.0
sI17689
F0.5950000000000001
sI17695
F0.5
sI17697
F0.67195
sI17698
F1.0
sI17740
F0.5005
sI17742
F0.5
sI17743
F0.5
sI17748
F0.49495500000000003
sI17749
F0.5
sI17751
F0.5
sI17753
F0.5
sI17755
F0.5
sI17761
F0.5
sI17766
F0.5
sI17767
F0.5
sI17769
F0.5
sI17771
F0.5
sI17773
F0.5
sI17775
F0.45
sI17777
F0.5
sI17780
F0.5
sI17781
F0.5
sI17782
F0.5
sI17785
F0.55
sI17787
F0.5
sI17788
F0.5
sI17797
F0.5
sI17803
F0.5
sI17805
F0.5
sI17806
F1.0
sI17820
F0.6355000000000001
sI17821
F0.5
sI17823
F0.46
sI17825
F0.55
sI17827
F0.55
sI17829
F0.5
sI17831
F0.5950000000000001
sI17834
F0.5
sI17835
F0.55
sI17836
F0.5
sI17839
F0.82566077995
sI17841
F0.704755
sI17842
F0.02492286556197918
sI17847
F1.0
sI17852
F1.0
sI17854
F1.0
sI17858
F1.0
sI17862
F1.0
sI17866
F1.0
sI17868
F1.0
sI17875
F0.5
sI17877
F0.4905
sI17878
F0.45
sI17883
F0.704755
sI17884
F0.5
sI17886
F0.45
sI17888
F0.5
sI17890
F0.5
sI17896
F0.1
sI17905
F0.8587852317595001
sI17911
F0.9828315808985374
sI17913
F0.5950000000000001
sI17914
F1.0
sI17929
F0.55
sI17931
F0.062182565169255744
sI17932
F0.03890364421936671
sI17937
F0.5
sI17938
F0.405
sI17940
F0.03988322153843625
sI17942
F0.0
sI17944
F0.0
sI17950
F0.704755
sI18013
F0.5
sI18019
F0.55
sI18021
F0.5
sI18022
F1.0
sI18067
F0.67195
sI18073
F0.5
sI18075
F0.5
sI18076
F1.0
sI18091
F0.5
sI18093
F0.5
sI18094
F0.5
sI18099
F0.55
sI18100
F0.5
sI18102
F0.5
sI18104
F0.5950000000000001
sI18106
F0.5
sI18112
F0.0
sI18226
F0.5950000000000001
sI18228
F0.5
sI18229
F0.505
sI18234
F0.704755
sI18235
F0.5
sI18237
F0.5
sI18239
F0.5
sI18241
F0.5
sI18247
F0.55
sI18252
F0.5
sI18253
F1.0
sI18255
F0.505
sI18257
F0.5
sI18261
F0.5
sI18263
F0.5
sI18266
F0.5
sI18267
F0.5
sI18268
F1.0
sI18273
F0.5
sI18274
F1.0
sI18283
F0.5
sI18289
F0.55
sI18291
F0.5
sI18292
F1.0
sI18306
F0.6355000000000001
sI18307
F0.5
sI18309
F0.5
sI18311
F0.55
sI18313
F0.6355000000000001
sI18315
F1.0
sI18320
F1.0
sI18322
F1.0
sI18325
F0.55
sI18327
F0.18035616840146027
sI18328
F0.025924529034915836
sI18333
F0.5
sI18335
F0.5
sI18338
F0.5
sI18339
F0.5
sI18340
F1.0
sI18344
F1.0
sI18348
F1.0
sI18351
F0.5950000000000001
sI18352
F1.0
sI18354
F0.07591242897384219
sI18356
F0.704755
sI18361
F0.67195
sI18363
F0.55
sI18364
F0.505
sI18370
F1.0
sI18372
F1.0
sI18382
F0.19910782609822653
sI18391
F0.704755
sI18397
F0.82566077995
sI18399
F0.704755
sI18400
F1.0
sI18417
F0.55
sI18418
F1.0
sI18423
F0.5
sI18424
F1.0
sI18426
F0.5
sI18428
F0.0
sI18468
F0.500005
sI18469
F0.505
sI18471
F0.50005
sI18473
F0.5
sI18475
F0.55
sI18477
F0.4995
sI18479
F0.5
sI18482
F0.5
sI18483
F0.5
sI18484
F0.5
sI18487
F0.5
sI18489
F0.5005
sI18490
F0.505
sI18495
F0.5
sI18497
F0.5
sI18500
F0.5
sI18501
F0.5
sI18502
F1.0
sI18506
F0.5
sI18510
F0.5
sI18512
F0.5
sI18513
F0.5
sI18514
F1.0
sI18516
F0.5
sI18518
F0.5
sI18523
F0.5
sI18525
F0.5
sI18526
F0.5
sI18531
F0.5
sI18532
F0.5
sI18534
F0.5
sI18536
F0.5
sI18538
F0.5
sI18544
F0.4078
sI18549
F0.5
sI18551
F0.5
sI18554
F0.5
sI18555
F0.5
sI18556
F0.5
sI18560
F1.0
sI18564
F1.0
sI18567
F0.7342795
sI18568
F0.5
sI18570
F0.15577957015573438
sI18572
F0.82566077995
sI18574
F0.55
sI18578
F1.0
sI18582
F1.0
sI18593
F1.0
sI18594
F1.0
sI18599
F1.0
sI18601
F1.0
sI18603
F0.55
sI18604
F0.5
sI18606
F0.5
sI18608
F0.5950000000000001
sI18610
F0.55
sI18612
F1.0
sI18617
F1.0
sI18619
F1.0
sI18622
F0.1798203378448042
sI18624
F0.10000095805428814
sI18625
F0.09999999999999995
sI18631
F0.55
sI18633
F0.5068255465
sI18634
F0.5471703099999999
sI18639
F0.4905
sI18640
F0.5
sI18642
F0.45
sI18644
F0.0
sI18646
F0.0
sI18652
F0.907348990557408
sI18657
F0.55
sI18658
F1.0
sI18660
F0.04132539086115165
sI18662
F0.0
sI18666
F0.45
sI18668
F0.0
sI18672
F0.0
sI18678
F0.6355000000000001
sI18679
F1.0
sI18688
F0.7608515499999999
sI18694
F0.5950000000000001
sI18696
F0.7342795
sI18697
F1.0
sI18715
F0.5
sI18721
F0.5
sI18723
F0.5
sI18724
F1.0
sI18741
F0.55
sI18742
F1.0
sI18747
F0.5
sI18748
F1.0
sI18750
F0.5
sI18752
F0.5
sI18793
F0.5
sI18795
F0.5
sI18796
F0.5
sI18802
F1.0
sI18804
F1.0
sI18814
F0.0
sI18819
F0.5
sI18820
F1.0
sI18822
F0.5
sI18824
F0.55
sI18828
F1.0
sI18833
F1.0
sI18835
F1.0
sI18840
F0.0
sI18850
F0.5950000000000001
sI18859
F1.0
sI18912
F0.5
sI18913
F1.0
sI18985
I0
sI18991
I0
sI18993
F0.0
sI19039
F0.0
sI19045
F0.0
sI19047
F0.0
sI19063
F0.0
sI19065
F0.0
sI19071
F0.0
sI19076
F0.0
sI19078
I0
sI19084
F0.0
sI19201
I0
sI19207
F0.0
sI19209
F0.0
sI19225
F0.0
sI19227
I0
sI19233
F0.0
sI19238
I0
sI19240
I0
sI19246
I0
sI19279
F0.0
sI19281
F0.0
sI19287
F0.0
sI19292
F0.0
sI19294
F0.0
sI19300
F0.0
sI19336
F0.0
sI19342
F0.0
sI19344
F0.0
sI19390
F0.0
sI19396
F0.0
sI19398
F0.0
sI19552
F0.0
sI19558
F0.0
sI19560
F0.0
s.