(dp0
I0
F0.6039810212768604
sI1
F0.6596905766627661
sI3
F0.5850389022505971
sI5
F0.4978326709079988
sI7
F0.4875935269429735
sI9
F0.5590973277029256
sI11
F0.3983256770888587
sI14
F0.5384200865003093
sI15
F0.3539691969344002
sI16
F0.5140258699581308
sI19
F0.45420065951246114
sI21
F0.5004489290573699
sI22
F0.5087429073053514
sI27
F0.5948006008979192
sI29
F0.4927488155172816
sI32
F0.5005
sI33
F0.49792574695149994
sI34
F0.5
sI38
F0.5
sI42
F0.5
sI44
F0.5
sI45
F0.4971064885464676
sI46
F0.493705
sI48
F0.5053292608889594
sI50
F0.5
sI52
F0.5
sI55
F0.40935571577368646
sI57
F0.3889123575282726
sI58
F0.5
sI63
F0.4081506651638223
sI64
F0.3356673186764624
sI66
F0.495
sI68
F0.5
sI70
F0.30490654446628007
sI76
F0.5
sI81
F0.5565781459801695
sI83
F0.49520818490649404
sI86
F0.49962852606773017
sI87
F0.33910611382828515
sI88
F0.4799921065595405
sI92
F0.5
sI96
F0.495
sI98
F0.45
sI99
F0.5563236056774546
sI100
F0.5234035466336637
sI102
F0.5715043522914744
sI104
F0.04910996686675287
sI106
F0.19283389274695495
sI110
F0.4917560270976053
sI114
F0.495
sI116
F0.45
sI125
F0.5
sI126
F0.5893251563338409
sI128
F0.16480930931817253
sI131
F0.495
sI132
F0.11632670599259204
sI133
F0.495
sI135
F0.35719828458370373
sI136
F0.5
sI138
F0.28452542162132816
sI140
F0.23914845
sI142
F0.45
sI144
F0.4905
sI146
F0.5
sI149
F0.5
sI150
F0.45
sI151
F0.5
sI154
F0.23914845
sI156
F0.10712574458454058
sI157
F0.5
sI163
F0.6413532134265831
sI165
F0.5889125816540458
sI166
F0.6334720295793971
sI171
F0.5517012155611143
sI172
F0.6949693721282154
sI174
F0.6255757503521576
sI176
F0.6219472140324498
sI178
F0.6850608226831253
sI184
F0.5842013278483111
sI189
F0.588778137420223
sI190
F0.6844444505412698
sI192
F0.5568363342410306
sI194
F0.5019226460547602
sI196
F0.30602697317595007
sI198
F0.6009096124039761
sI200
F0.5019804539859608
sI203
F0.9166140915016672
sI204
F0.5
sI205
F0.87290670858355
sI208
F0.32805000000000006
sI210
F0.5365089698348662
sI211
F0.9392116727047154
sI220
F0.3313305
sI226
F0.301806
sI228
F0.405
sI229
F0.0
sI243
F0.6038576779653799
sI245
F0.49776610957514644
sI248
F0.5013870633604
sI249
F0.35680749615585916
sI250
F0.5
sI254
F0.49763661795
sI258
F0.5
sI260
F0.5
sI261
F0.5093010890207469
sI262
F0.5030991
sI264
F0.5092319035416547
sI266
F0.5
sI268
F0.5
sI272
F0.5065501109572002
sI276
F0.5017175030350001
sI278
F0.45
sI287
F0.5
sI288
F0.5386125616871239
sI290
F0.45
sI293
F0.5
sI294
F0.45
sI295
F0.5
sI297
F0.49296373801665416
sI298
F0.5
sI300
F0.5000721935483892
sI302
F0.5
sI304
F0.5
sI306
F0.5
sI308
F0.45
sI311
F0.5
sI312
F0.5
sI313
F0.5
sI316
F0.5
sI318
F0.5007219354838914
sI319
F0.5
sI326
F0.505188999155351
sI330
F0.26810551892457823
sI332
F0.22293949950000005
sI341
F0.5
sI342
F0.5082460262038063
sI344
F0.04724014491597136
sI347
F0.48195
sI348
F0.060185707027613666
sI349
F0.4779
sI359
F0.0
sI371
F0.0
sI375
F0.0
sI378
F0.5032821791421723
sI380
F0.5206107065776285
sI383
F0.5950000000000001
sI384
F0.24690507381292476
sI385
F0.49545
sI389
F0.55
sI393
F0.18678980316585678
sI395
F0.1412147682405
sI396
F0.5145166403892517
sI397
F0.49999995817332005
sI399
F0.4999947462096688
sI401
F0.2657205
sI403
F0.0443146905982625
sI405
F0.6012354524449939
sI406
F0.6042583869332153
sI408
F0.5904254282892282
sI410
F0.51691763289925
sI412
F0.5108429292826019
sI414
F0.5424367481230047
sI416
F0.05668777895905576
sI419
F0.8970544339526756
sI420
F0.06973316489787663
sI421
F0.907348990557408
sI424
F0.5054774034649854
sI426
F0.6019009212852647
sI427
F0.9507614548908194
sI432
F0.9110790668802198
sI434
F0.5209681466215
sI437
F0.6355000000000001
sI438
F0.5151955357
sI439
F0.5950000000000001
sI443
F0.5950000000000001
sI447
F0.5950000000000001
sI449
F0.5
sI450
F0.5679378993528854
sI451
F0.5950000000000001
sI453
F0.9166140915016672
sI455
F0.5
sI457
F0.5
sI460
F0.4815955377240836
sI462
F0.49021605
sI463
F0.5026085155
sI468
F0.06667212651669456
sI469
F0.4206946005
sI471
F0.459999
sI473
F0.405
sI475
F0.32805000000000006
sI481
F0.5234766370126279
sI487
F0.49453927187330077
sI489
F0.4943162239370085
sI490
F0.5027889848089002
sI495
F0.4455794800501099
sI496
F0.4926015
sI498
F0.5
sI500
F0.5
sI502
F0.496935
sI508
F0.5199868528878633
sI513
F0.49422962291508604
sI514
F0.5000281725322578
sI516
F0.5
sI518
F0.5
sI520
F0.5
sI522
F0.49999934309470195
sI524
F0.4999982566077995
sI527
F0.5
sI528
F0.5
sI529
F0.5
sI532
F0.45
sI534
F0.5
sI535
F0.55
sI544
F0.45
sI550
F0.29524500000000004
sI552
F0.45
sI553
F0.0
sI567
F0.26136317384366786
sI568
F0.5
sI570
F0.4904233088703051
sI572
F0.404595
sI574
F0.45
sI576
F0.4138643274349505
sI578
F0.36450000000000005
sI581
F0.5
sI582
F0.36450000000000005
sI583
F0.48195
sI586
F0.3447450000000001
sI588
F0.06477216961563556
sI589
F0.55
sI594
F0.5
sI596
F0.49278172036980206
sI599
F0.48711345072793744
sI600
F0.5
sI601
F0.5
sI605
F0.47778127289602285
sI609
F0.5
sI611
F0.405
sI612
F0.5838010250105936
sI613
F0.9828315808985374
sI615
F0.9828315808985374
sI617
F0.45
sI619
F0.45
sI622
F0.5
sI624
F0.23914845
sI625
F0.5
sI630
F0.37989
sI631
F0.495
sI633
F0.5
sI635
F0.5
sI637
F0.45
sI643
F0.5
sI652
F0.17433922005
sI658
F0.36450000000000005
sI660
F0.36450000000000005
sI661
F0.0
sI676
F0.45
sI678
F0.48510831150000006
sI679
F0.451436895
sI684
F0.49996930500000003
sI685
F0.5
sI687
F0.5
sI689
F0.5
sI691
F0.5
sI697
F0.405
sI729
F0.6066785772746429
sI731
F0.4382805961912101
sI734
F0.5008839850000001
sI735
F0.4930167299451865
sI736
F0.5
sI740
F0.3456337250788905
sI744
F0.5
sI746
F0.31027050000000006
sI747
F0.49157003061773963
sI748
F0.483984069348368
sI750
F0.4999545
sI752
F0.499545
sI754
F0.45
sI758
F0.5005
sI762
F0.5
sI764
F0.5
sI773
F0.5
sI774
F0.5
sI776
F0.5
sI779
F0.5
sI780
F0.5
sI781
F0.0
sI783
F0.4600594352809604
sI784
F0.5005
sI786
F0.5008994999999999
sI788
F0.4995
sI790
F0.5
sI792
F0.5
sI794
F0.29524500000000004
sI797
F0.5
sI798
F0.5
sI799
F0.5
sI802
F0.46068795886333525
sI804
F0.5
sI805
F0.5136995581772239
sI812
F0.498469843094702
sI816
F0.495
sI818
F0.5
sI827
F0.0
sI828
F0.5592827491887227
sI830
F0.558419985128723
sI833
F0.49997406276458134
sI834
F0.4941648
sI835
F0.47502449999999996
sI845
F0.5
sI857
F0.9249526823515004
sI861
F0.5
sI863
F1.0
sI864
F0.495
sI866
F0.45
sI869
F0.5
sI870
F0.45
sI871
F0.5
sI875
F0.0
sI879
F0.0
sI882
F0.4925584428729285
sI883
F0.501355
sI885
F0.4906891597763835
sI887
F0.2657205
sI889
F0.405
sI891
F0.595741670934635
sI892
F0.5627482652765289
sI894
F0.6619267088561711
sI896
F0.508673097103781
sI898
F0.36450000000000005
sI900
F0.6108229340216588
sI902
F0.32396141171391096
sI905
F0.8970544339526756
sI906
F0.5046603058513573
sI907
F0.9392116727047154
sI910
F0.21738594104999998
sI912
F0.520696028558782
sI913
F0.5437214562570619
sI918
F0.5860714753498997
sI920
F0.619857947256316
sI923
F0.907348990557408
sI924
F0.29524500000000004
sI925
F0.0
sI929
F0.8970544339526756
sI933
F0.55
sI935
F0.5
sI936
F0.32805000000000006
sI937
F0.0
sI939
F0.5343432539174413
sI941
F0.5563588023037488
sI946
F0.6076892278352083
sI948
F0.6282305799409851
sI949
F0.8970544339526756
sI954
F0.5051227195
sI955
F0.907348990557408
sI957
F0.9166140915016672
sI959
F0.5
sI961
F0.514
sI967
F0.5545562346342591
sI974
F0.5005
sI978
F0.5005
sI980
F0.5
sI989
F0.5
sI990
F0.5030416481947242
sI992
F0.508733409647248
sI995
F0.5105330519359098
sI996
F0.5
sI997
F0.5
sI1007
F0.5
sI1019
F0.55
sI1023
F0.5
sI1025
F1.0
sI1026
F0.49999803345
sI1028
F0.5
sI1031
F0.5
sI1032
F0.5
sI1033
F0.5
sI1037
F0.5
sI1041
F0.5
sI1043
F0.5
sI1044
F0.5
sI1045
F0.49991
sI1047
F0.5
sI1049
F0.5
sI1051
F0.5
sI1061
F0.55
sI1073
F0.8970544339526756
sI1077
F0.5
sI1079
F1.0
sI1109
F0.5091119797708409
sI1113
F0.4933768193999632
sI1115
F0.4545
sI1124
F0.0
sI1125
F0.5309121264577963
sI1127
F0.5030798142961073
sI1130
F0.49999999999337513
sI1131
F0.5496085061882502
sI1132
F0.4999999690295435
sI1134
F0.6156757163321858
sI1136
F0.5105414530000001
sI1139
F0.55
sI1140
F0.5072521469577456
sI1141
F0.5950000000000001
sI1145
F0.6355000000000001
sI1149
F0.5950000000000001
sI1151
F0.5
sI1152
F0.4967349391261087
sI1153
F0.48967814000882987
sI1155
F0.5746212890909185
sI1157
F0.5405601570400228
sI1159
F0.45
sI1163
F0.907348990557408
sI1167
F0.55
sI1169
F0.5
sI1178
F0.5
sI1179
F0.593235926884621
sI1181
F0.6964018639823006
sI1184
F0.9641051006154073
sI1185
F0.405
sI1186
F0.0
sI1188
F0.4999843845
sI1189
F0.5277335195392441
sI1191
F0.5474451905570576
sI1193
F0.4852406875765095
sI1195
F0.5086012072424151
sI1197
F0.50136355
sI1199
F0.5
sI1202
F0.5
sI1203
F0.45
sI1204
F0.5950000000000001
sI1207
F0.4940305332984564
sI1209
F0.4957577238079171
sI1210
F0.4999999996691096
sI1215
F0.39750607910763613
sI1216
F0.49995
sI1218
F0.5005
sI1220
F0.5
sI1222
F0.4995
sI1224
F0.5
sI1226
F0.29524500000000004
sI1229
F0.5
sI1230
F0.5
sI1231
F0.5
sI1234
F0.45
sI1236
F0.505
sI1237
F0.55
sI1242
F0.49210726722001374
sI1244
F0.4964687353401456
sI1247
F0.5
sI1248
F0.45
sI1249
F0.0
sI1253
F0.5000411524145
sI1257
F0.5
sI1259
F0.5
sI1260
F0.45
sI1261
F0.0
sI1263
F0.5
sI1265
F0.5
sI1270
F0.5
sI1272
F0.5
sI1273
F0.5
sI1278
F0.5
sI1279
F0.5
sI1281
F0.5
sI1283
F0.5
sI1285
F0.5
sI1291
F0.5
sI1296
F0.22562929217924574
sI1298
F0.20681617004999997
sI1301
F0.495
sI1302
F0.17821342493999998
sI1303
F0.5
sI1307
F0.0
sI1311
F0.0
sI1314
F0.2010470929198803
sI1315
F0.55
sI1317
F0.5950000000000001
sI1319
F0.26448862191460254
sI1321
F0.45
sI1325
F0.5119891750000001
sI1329
F0.5
sI1331
F0.45
sI1340
F0.0
sI1341
F0.9874842224750338
sI1343
F0.5465984500000002
sI1346
F0.6355000000000001
sI1347
F0.405
sI1348
F0.0
sI1350
F0.1937102445
sI1351
F0.5
sI1353
F0.5
sI1355
F0.5
sI1357
F0.5
sI1359
F0.0
sI1364
I0
sI1366
I0
sI1369
F0.5
sI1371
F0.45
sI1372
F0.5
sI1378
F0.40905
sI1380
F0.507222240423313
sI1381
F0.9249526823515004
sI1386
F0.500310713975
sI1387
F0.5
sI1389
F0.9507614548908194
sI1391
F0.505
sI1393
F0.45
sI1399
F0.35161435
sI1404
F0.3442950000000001
sI1405
F0.0
sI1407
F0.500422110924098
sI1409
F0.5000532156390157
sI1413
F0.5011087117999999
sI1415
F0.5004115241449999
sI1418
F0.9507614548908194
sI1419
F0.5
sI1420
F0.0
sI1425
F0.054709494565756175
sI1426
F0.0
sI1435
F1.0
sI1441
F1.0
sI1443
F1.0
sI1459
F0.49400465971847385
sI1461
F0.49751029384179946
sI1462
F0.4919985
sI1467
F0.3120790253399272
sI1468
F0.49459582872648333
sI1470
F0.5005
sI1472
F0.505
sI1474
F0.4987403083944847
sI1480
F0.4958415
sI1485
F0.49619424855672467
sI1486
F0.5154117690762653
sI1488
F0.49999648781590683
sI1490
F0.5
sI1492
F0.5
sI1494
F0.5005
sI1496
F0.5
sI1499
F0.5
sI1500
F0.5
sI1501
F0.5018045442982499
sI1504
F0.5095000000000001
sI1506
F0.5
sI1507
F0.55
sI1516
F0.45
sI1522
F0.29524500000000004
sI1524
F0.5
sI1525
F0.0
sI1539
F0.49261384789614043
sI1540
F0.4865679793181491
sI1542
F0.5022575020978788
sI1544
F0.405
sI1546
F0.405
sI1548
F0.5022868680748986
sI1550
F0.5
sI1553
F0.5
sI1554
F0.5
sI1555
F0.5005
sI1558
F0.156905298045
sI1560
F0.08348080329605882
sI1561
F0.478305
sI1566
F0.4944438255106458
sI1568
F0.45
sI1571
F0.5
sI1572
F0.405
sI1573
F0.5
sI1577
F0.5
sI1581
F0.5
sI1583
F0.5
sI1584
F0.0443146905982625
sI1585
F0.5
sI1587
F0.5
sI1589
F0.5
sI1591
F0.5
sI1594
F0.405
sI1596
F0.24446286
sI1597
F0.5
sI1602
F0.5
sI1603
F0.5
sI1605
F0.5
sI1607
F1.0
sI1609
F0.5
sI1615
F0.45
sI1624
F0.41805000000000003
sI1630
F0.32805000000000006
sI1632
F0.2770525354705737
sI1633
F0.0
sI1648
F0.6976408454247787
sI1650
F0.4995732318794126
sI1651
F0.8970544339526756
sI1656
F0.4954527082890134
sI1657
F0.5301201516265749
sI1659
F0.49604841536251315
sI1661
F0.5036960104165252
sI1663
F0.516236574136725
sI1669
F1.0
sI1701
F0.5005725863813961
sI1702
F0.503254408544189
sI1704
F0.5
sI1706
F0.5
sI1708
F0.49864050000000004
sI1710
F0.5074901381616143
sI1712
F0.40905
sI1715
F0.5
sI1716
F0.45
sI1717
F0.4905
sI1720
F0.50559795
sI1722
F0.5
sI1723
F0.55
sI1728
F0.5017195
sI1730
F0.45
sI1733
F0.5
sI1734
F0.500266
sI1735
F0.50266
sI1739
F0.5
sI1743
F0.5
sI1745
F0.45
sI1746
F0.405
sI1747
F0.55
sI1749
F0.5
sI1751
F0.5
sI1753
F0.5
sI1756
F0.5
sI1758
F0.5
sI1759
F0.5
sI1764
F0.45
sI1765
F0.5
sI1767
F0.5
sI1769
F1.0
sI1771
F0.45
sI1777
F0.5
sI1782
F0.5
sI1784
F0.5
sI1787
F0.5
sI1788
F0.23914845
sI1789
F0.5
sI1793
F0.5
sI1797
F0.5
sI1799
F0.5
sI1800
F0.010351799590899552
sI1801
F0.47385
sI1803
F0.486
sI1805
F0.405
sI1807
F0.405
sI1811
F0.0
sI1815
F0.0
sI1826
F0.0
sI1827
F0.0
sI1832
I0
sI1834
F0.0
sI1836
F0.5
sI1837
F0.5
sI1839
F0.55
sI1841
F1.0
sI1843
F0.5
sI1845
F0.5
sI1847
F1.0
sI1851
F0.1412147682405
sI1852
F0.5
sI1855
F0.07572274350733603
sI1857
F0.2657205
sI1858
F0.5
sI1864
F0.4779124301719793
sI1866
F0.50265
sI1867
F0.5950000000000001
sI1872
F0.021195579137608098
sI1873
F0.3733590222013774
sI1875
F0.4905
sI1877
F0.45
sI1879
F0.2657205
sI1885
F1.0
sI1890
F0.517195
sI1891
F0.9249526823515004
sI1893
F0.55
sI1895
F0.5
sI1897
F0.5221
sI1899
F0.5
sI1901
F0.53062897555
sI1904
F0.5950000000000001
sI1905
F0.5
sI1906
F0.9324574141163504
sI1909
F1.0
sI1911
F1.0
sI1921
F0.5
sI1927
F0.29524500000000004
sI1929
F0.36450000000000005
sI1930
F0.0
sI1948
F0.45
sI1954
F0.32805000000000006
sI1956
F0.5
sI1957
F0.0
sI1972
F0.5002817253225786
sI1974
F0.5
sI1975
F0.5
sI1980
F0.5
sI1981
F0.5
sI1983
F0.5
sI1985
F0.5
sI1987
F0.5
sI1993
F0.505
sI2026
F0.405
sI2028
F0.45
sI2029
F0.5
sI2034
F0.4015324196869356
sI2035
F0.5
sI2037
F0.3332216791711685
sI2039
F0.2657205
sI2041
F0.405
sI2047
F0.45
sI2052
F0.49426880615766894
sI2053
F0.5005
sI2055
F0.499941211983895
sI2057
F0.45
sI2059
F0.5
sI2061
F0.5013398045819564
sI2063
F0.46618177210785106
sI2066
F0.451017303930519
sI2067
F0.4995
sI2068
F0.495
sI2071
F0.405
sI2073
F0.405
sI2074
F0.5
sI2083
F0.5
sI2089
F0.5
sI2091
F0.2657205
sI2092
F0.0
sI2137
F0.36450000000000005
sI2143
F0.29524500000000004
sI2145
F0.45
sI2146
F0.0
sI2187
F0.6072208490062013
sI2189
F0.5017675809582861
sI2192
F0.5001309156829019
sI2193
F0.49553954007518675
sI2194
F0.5
sI2198
F0.49995
sI2202
F0.4999995
sI2204
F0.4995
sI2205
F0.487630980813013
sI2206
F0.5
sI2208
F0.5003256564838
sI2210
F0.45
sI2212
F0.5
sI2216
F0.5
sI2220
F0.5
sI2222
F0.5
sI2231
F0.5
sI2232
F0.5
sI2234
F0.5
sI2237
F0.5
sI2238
F0.5
sI2239
F0.5
sI2241
F0.49497547550396775
sI2242
F0.5
sI2244
F0.5008836699999999
sI2246
F0.45
sI2248
F0.5
sI2250
F0.5005
sI2252
F0.5
sI2255
F0.5
sI2256
F0.5
sI2257
F0.5
sI2260
F0.5
sI2262
F0.5
sI2263
F0.5
sI2270
F0.5005
sI2274
F0.5252086956457425
sI2276
F0.505
sI2285
F0.495
sI2286
F0.5961147610277684
sI2288
F0.2657205
sI2291
F0.0
sI2292
F0.6107905569288592
sI2293
F0.5068358341047117
sI2303
F0.55
sI2315
F0.5
sI2319
F0.9324574141163504
sI2321
F1.0
sI2322
F0.4954400979026731
sI2324
F0.4545
sI2327
F0.0
sI2328
F0.4975072926472733
sI2329
F0.4960347974303537
sI2333
F0.5
sI2337
F0.5
sI2339
F0.5
sI2340
F0.2657205
sI2341
F0.5
sI2343
F0.0
sI2347
F0.23914845
sI2349
F0.6133958989539591
sI2350
F0.5684603087249335
sI2352
F0.9035158077790846
sI2354
F0.5269483768632445
sI2356
F0.484931664812876
sI2358
F0.5980146960382825
sI2360
F0.49160935744230905
sI2363
F0.8970544339526756
sI2364
F0.49693284766395
sI2365
F0.5277887507276753
sI2368
F0.49083141661482166
sI2370
F0.5164809083542001
sI2371
F0.9166140915016672
sI2376
F0.5883146073332727
sI2378
F0.5006718577764065
sI2381
F0.6355000000000001
sI2382
F0.49027214654999995
sI2383
F0.50095
sI2387
F0.5950000000000001
sI2391
F0.4999704755
sI2393
F0.5
sI2394
F0.4476776335281569
sI2395
F0.5950000000000001
sI2397
F0.9166140915016672
sI2399
F0.5
sI2401
F0.5
sI2404
F0.5434018958264978
sI2406
F0.5046335245
sI2407
F0.885616037725195
sI2412
F0.5904600771771401
sI2413
F0.9324574141163504
sI2415
F0.87290670858355
sI2417
F0.5
sI2419
F0.5070788570928592
sI2425
F0.5
sI2432
F0.5016195000000001
sI2436
F0.500005
sI2438
F0.5
sI2447
F0.5
sI2448
F0.5102285068540732
sI2450
F0.4995
sI2453
F0.495
sI2454
F0.50005
sI2455
F0.5005
sI2465
F0.5
sI2477
F0.5
sI2481
F0.5
sI2483
F1.0
sI2484
F0.500389516
sI2486
F0.5
sI2489
F0.5
sI2490
F0.4999919
sI2491
F0.5
sI2495
F0.5
sI2499
F0.5
sI2501
F0.5
sI2502
F0.4995
sI2503
F0.5
sI2505
F0.5
sI2507
F0.45
sI2509
F0.5
sI2519
F0.5
sI2531
F0.5
sI2535
F0.907348990557408
sI2537
F1.0
sI2567
F0.55
sI2571
F0.5036307606823431
sI2573
F0.5
sI2582
F0.5
sI2583
F0.5343097472800812
sI2585
F0.37825696069231274
sI2588
F0.0
sI2589
F0.5664844250621586
sI2590
F0.4999999999997427
sI2592
F0.7034874109902348
sI2594
F0.4980787199999999
sI2597
F0.5950000000000001
sI2598
F0.49687551
sI2599
F0.5025580313258425
sI2603
F0.55
sI2607
F0.5018050000000001
sI2609
F0.5
sI2610
F0.5341587551874537
sI2611
F0.885616037725195
sI2613
F0.9601167784615637
sI2615
F0.54073
sI2617
F0.4923438656604732
sI2621
F0.6355000000000001
sI2625
F0.514062451
sI2627
F0.5
sI2636
F0.5
sI2637
F0.8970544339526756
sI2639
F0.5095000000000001
sI2642
F0.67195
sI2643
F0.5554886050000002
sI2644
F0.6355000000000001
sI2646
F0.48978948120497995
sI2647
F0.5019605789032358
sI2649
F0.507304945
sI2651
F0.505
sI2653
F0.48771558
sI2655
F0.5834424053327779
sI2657
F0.36450000000000005
sI2660
F0.5
sI2661
F0.32464353299655374
sI2662
F0.49999702508802985
sI2665
F0.5003514215406601
sI2667
F0.4992524358011567
sI2668
F0.9507614548908194
sI2673
F0.4971619512094718
sI2674
F0.5
sI2676
F0.4973581
sI2678
F0.45
sI2680
F0.5
sI2682
F0.5
sI2684
F0.5
sI2687
F0.5
sI2688
F0.5
sI2689
F0.5
sI2692
F0.5
sI2694
F0.5
sI2695
F0.55
sI2700
F0.5
sI2702
F0.5
sI2705
F0.5
sI2706
F0.5000006726501619
sI2707
F0.5
sI2711
F0.5
sI2715
F0.5
sI2717
F0.5
sI2718
F0.5
sI2719
F0.5
sI2721
F0.5
sI2723
F0.5
sI2725
F0.5
sI2728
F0.5
sI2730
F0.5
sI2731
F0.5
sI2736
F0.505
sI2737
F0.5
sI2739
F0.55
sI2741
F0.5
sI2743
F0.5
sI2749
F0.5
sI2754
F0.499905
sI2756
F0.5
sI2759
F0.0
sI2760
F0.49905
sI2761
F0.5
sI2765
F0.5
sI2769
F0.5
sI2771
F0.45
sI2772
F0.33414222425088663
sI2773
F0.55
sI2775
F0.0
sI2779
F0.37260000000000004
sI2783
F0.5001365808779032
sI2787
F0.5000067265016193
sI2789
F0.5079412188560826
sI2798
F0.46325476319160075
sI2799
F0.9845484228086836
sI2801
F0.32805000000000006
sI2804
F0.0
sI2805
F0.505
sI2806
F0.5
sI2808
F0.45
sI2809
F0.5
sI2811
F0.0
sI2815
F0.45
sI2817
F0.495
sI2819
F0.5
sI2822
I0
sI2823
F0.45
sI2824
F0.5
sI2827
F0.5
sI2830
I0
sI2836
F0.5454503272056196
sI2838
F0.5095405
sI2839
F0.8587852317595001
sI2844
F0.5041214535599443
sI2845
F0.87290670858355
sI2847
F0.55
sI2849
F0.5
sI2851
F0.49810847636852573
sI2857
F0.5095000000000001
sI2862
F0.4984110877408714
sI2863
F0.5303986025369896
sI2865
F0.5005
sI2867
F0.5
sI2869
F0.2837434352007093
sI2871
F0.5004767150994435
sI2873
F0.5023889459944346
sI2876
F0.55
sI2877
F0.4995
sI2878
F0.46376615383990977
sI2881
F0.215233605
sI2883
F0.505
sI2884
F0.55
sI2893
F1.0
sI2899
F1.0
sI2901
F1.0
sI2918
F0.5
sI2922
F0.49705233389322845
sI2924
F0.36450000000000005
sI2933
F0.495
sI2934
F0.5118594034601398
sI2936
F0.41950000000000004
sI2939
F0.5
sI2940
F0.405
sI2941
F0.5
sI2951
F0.5
sI2963
F0.5
sI2967
F0.5
sI2969
F1.0
sI2970
F0.5
sI2972
F0.5
sI2975
F0.495
sI2976
F0.45
sI2977
F0.5
sI2981
F0.5
sI2985
F0.5
sI2987
F0.5
sI2988
F0.405
sI2989
F0.4971363284172357
sI2991
F0.5
sI2993
F0.5
sI2995
F0.45
sI3005
F0.5
sI3017
F0.907348990557408
sI3021
F0.8970544339526756
sI3023
F1.0
sI3053
F0.5
sI3057
F0.5
sI3059
F0.5
sI3068
I0
sI3069
F0.5
sI3071
F0.45
sI3074
F0.0
sI3075
F0.5
sI3076
F0.5
sI3078
F0.582191063081256
sI3080
F0.36450000000000005
sI3083
F0.5950000000000001
sI3084
F0.29524500000000004
sI3085
F0.4316467350710218
sI3089
F0.55
sI3093
F0.5016030585135737
sI3095
F0.5
sI3096
F0.29524500000000004
sI3097
F0.417494177505
sI3099
F0.7051647175126161
sI3101
F0.5
sI3103
F0.32805000000000006
sI3107
F0.9166140915016672
sI3111
F0.459999
sI3113
F0.36450000000000005
sI3122
F0.5
sI3123
F0.38521630868031376
sI3125
F0.29524500000000004
sI3128
F0.9709251314984799
sI3129
F0.31470565500000003
sI3130
F0.0
sI3132
F0.2657205
sI3133
F0.9641051006154073
sI3135
F0.885616037725195
sI3137
F0.5
sI3139
F0.31064802317595
sI3141
F0.87290670858355
sI3143
F0.5
sI3146
F0.5
sI3147
F0.5
sI3148
F0.8970544339526756
sI3151
F0.32805000000000006
sI3153
F0.5
sI3154
F0.9556853094017375
sI3167
F0.5
sI3179
F0.55
sI3183
F0.5
sI3185
F1.0
sI3215
F0.5
sI3219
F0.499919
sI3221
F0.5
sI3230
F0.5
sI3231
F0.495
sI3233
F0.5
sI3236
F0.5
sI3237
F0.5
sI3238
F0.5
sI3302
F0.55
sI3314
F0.9641051006154073
sI3318
F0.9392116727047154
sI3320
F1.0
sI3323
F0.55
sI3327
F0.5083729493370921
sI3329
F0.5
sI3338
F0.5
sI3339
F0.5215761577814935
sI3341
F0.405
sI3344
F0.9249526823515004
sI3345
F0.3313305
sI3346
F0.4418666066047325
sI3356
F0.5
sI3368
F0.8062897554999999
sI3372
F0.67195
sI3374
F1.0
sI3375
F0.51166477
sI3377
F0.45
sI3380
F0.5
sI3381
F0.45
sI3382
F0.4171275302580482
sI3386
F0.5
sI3390
F0.49992609558529283
sI3392
F0.5
sI3393
F0.36450000000000005
sI3394
F0.4999999999999988
sI3396
F0.48728595645683487
sI3398
F0.45
sI3400
F0.049238545109180555
sI3402
F0.50181294295
sI3404
F0.5
sI3407
F0.5
sI3408
F0.405
sI3409
F0.495
sI3413
F0.5
sI3417
F0.5
sI3419
F0.45
sI3420
F0.45
sI3421
F0.5
sI3423
F0.55
sI3425
F0.5
sI3427
F0.45
sI3431
F0.5
sI3435
F0.5
sI3437
F0.5
sI3446
F0.5
sI3447
F0.5
sI3449
F0.5
sI3452
F0.5
sI3453
F0.5
sI3454
F0.0
sI3456
F0.5
sI3457
F0.5
sI3459
F0.5
sI3461
F0.45
sI3463
F0.5
sI3465
F0.5
sI3467
F0.5
sI3470
F0.5
sI3471
F0.5
sI3472
F0.5
sI3475
F0.45
sI3477
F0.5
sI3478
F0.5
sI3485
F0.495
sI3489
F0.4905
sI3491
F0.45
sI3500
F0.0
sI3501
F0.7342795
sI3503
F0.45
sI3506
F0.0
sI3507
F0.45
sI3508
F0.55
sI3518
F0.5950000000000001
sI3530
F0.6355000000000001
sI3534
F0.55
sI3536
F1.0
sI3537
F0.5
sI3539
F0.5
sI3542
F0.0
sI3543
F0.4995
sI3544
F0.495
sI3548
I0
sI3552
F0.0
sI3555
F0.5
sI3556
F0.5
sI3558
F0.0
sI3562
F0.45
sI3564
F0.1937102445
sI3565
F0.885616037725195
sI3567
F0.9601167784615637
sI3569
F0.5
sI3571
F0.29524500000000004
sI3573
F0.5
sI3575
F0.5
sI3578
F0.55
sI3579
F0.5
sI3580
F0.5950000000000001
sI3583
F0.32805000000000006
sI3585
F0.45
sI3586
F0.5950000000000001
sI3591
F0.5
sI3593
F0.5
sI3596
F0.9452905054342439
sI3597
F0.36450000000000005
sI3598
F0.0
sI3602
F0.55
sI3606
F0.495
sI3608
F0.45
sI3609
F0.29524500000000004
sI3610
F0.0
sI3612
F0.5
sI3614
F0.405
sI3619
F1.0
sI3621
F1.0
sI3627
F1.0
sI3632
F1.0
sI3634
F1.0
sI3640
F1.0
sI3645
F0.49383167754108054
sI3646
F0.5005
sI3648
F0.524654007814785
sI3650
F0.45
sI3652
F0.5
sI3654
F0.5
sI3656
F0.5
sI3659
F0.55
sI3660
F0.499995
sI3661
F0.4998290777307542
sI3664
F0.5
sI3666
F0.5
sI3667
F0.5
sI3672
F0.5
sI3674
F0.5
sI3677
F0.5
sI3678
F0.5
sI3679
F0.5
sI3683
F0.5
sI3687
F0.5
sI3689
F0.5
sI3690
F0.5
sI3691
F0.5
sI3693
F0.5
sI3695
F0.5
sI3697
F0.5
sI3700
F0.5
sI3702
F0.5
sI3703
F0.5
sI3708
F0.5
sI3709
F0.5
sI3711
F0.5
sI3713
F1.0
sI3715
F0.498645
sI3721
F0.5
sI3726
F0.4966199278519416
sI3728
F0.45
sI3731
F0.0
sI3732
F0.4990531574917257
sI3733
F0.45343517048748283
sI3737
F0.5
sI3741
F0.5123489874089042
sI3743
F0.5
sI3744
F0.24771055500000005
sI3745
F0.495
sI3747
F0.0
sI3751
F0.29524500000000004
sI3755
F0.5
sI3759
F0.4900106452768225
sI3761
F0.36450000000000005
sI3770
F0.5
sI3771
F0.5
sI3773
F0.5
sI3776
I0
sI3777
F0.45
sI3778
F0.5
sI3780
F0.45
sI3781
F0.5
sI3783
F0.0
sI3787
F0.36450000000000005
sI3789
F0.5
sI3791
F1.0
sI3795
F0.5139236342753528
sI3796
F0.4739314996908543
sI3799
F0.5
sI3802
F0.0
sI3808
F0.48662456849317803
sI3810
F0.9235742904126351
sI3811
F0.9166140915016672
sI3816
F0.5283731634175263
sI3817
F0.46753583636852586
sI3819
F0.9185844067983859
sI3821
F0.945393375844475
sI3823
F0.45384911581098175
sI3829
F1.0
sI3834
F0.5943343858425575
sI3835
F0.9392116727047154
sI3837
F0.9556853094017375
sI3839
F0.51805
sI3841
F0.5095000000000001
sI3843
F0.5326683271825446
sI3845
F0.5210306160659858
sI3848
F0.9738326183486319
sI3849
F0.49272462478974566
sI3850
F0.49995675452475646
sI3853
F1.0
sI3855
F1.0
sI3865
F0.5
sI3871
F0.405
sI3873
F0.5
sI3874
F0.0
sI3888
F0.5005
sI3890
F0.5
sI3893
F0.5
sI3894
F0.5
sI3895
F0.5
sI3899
F0.55
sI3903
F0.5
sI3905
F0.5
sI3906
F0.505
sI3907
F0.55
sI3909
F0.5
sI3911
F0.5
sI3913
F0.505
sI3917
F0.5
sI3921
F0.5
sI3923
F0.5
sI3932
F0.5
sI3933
F0.5
sI3935
F0.5
sI3938
F0.5
sI3939
F0.5
sI3940
F0.55
sI3942
F0.505
sI3943
F0.5
sI3945
F0.5
sI3947
F1.0
sI3949
F0.5
sI3951
F0.5
sI3953
F1.0
sI3957
F0.5
sI3958
F0.5
sI3961
F0.5
sI3963
F0.5
sI3964
F0.5
sI3971
F0.5
sI3975
F0.49957442068785474
sI3977
F0.45
sI3986
F0.5
sI3987
F0.5
sI3989
F0.5
sI3992
F0.0
sI3993
F0.45
sI3994
F0.5
sI4004
F0.0
sI4016
I0
sI4020
F0.0
sI4023
F0.5
sI4025
F1.0
sI4029
F0.5090807372360417
sI4030
F0.4496012150991763
sI4038
F0.6355000000000001
sI4040
F1.0
sI4041
F0.22253422005
sI4042
F0.4905
sI4044
F0.0
sI4048
F0.1937102445
sI4050
F0.5023009110657616
sI4051
F0.55
sI4053
F0.9166140915016672
sI4055
F0.5
sI4057
F0.5326182905940053
sI4059
F0.5172924144173601
sI4061
F0.45
sI4064
F0.9601167784615637
sI4065
F0.4985513898612361
sI4066
F0.4716365256643805
sI4069
F1.0
sI4071
F1.0
sI4077
F0.9249526823515004
sI4079
F0.5095000000000001
sI4082
F0.6355000000000001
sI4083
F0.4977664215110531
sI4084
F0.67195
sI4088
F0.9166140915016672
sI4092
F0.48355003337720104
sI4094
F0.45
sI4095
F1.0
sI4100
F1.0
sI4102
F1.0
sI4105
F0.460962634354758
sI4107
F0.53562295
sI4108
F0.6355000000000001
sI4113
F0.29524500000000004
sI4114
F0.33093804935632504
sI4116
F0.5950000000000001
sI4118
F1.0
sI4120
F0.1412147682405
sI4126
F1.0
sI4132
F0.5
sI4134
F0.5
sI4135
F0.5
sI4140
F0.5
sI4141
F0.5
sI4143
F0.5
sI4145
F0.5
sI4147
F0.4995
sI4153
F0.5
sI4158
F0.5
sI4159
F0.5
sI4161
F0.5
sI4163
F0.5
sI4165
F0.5
sI4167
F0.5
sI4169
F0.5
sI4172
F0.5
sI4173
F0.5
sI4174
F0.5
sI4177
F0.5
sI4179
F0.5
sI4180
F0.55
sI4189
F0.5
sI4195
F0.5
sI4197
F0.5
sI4198
I0
sI4212
F0.405
sI4213
F0.5
sI4215
F0.0
sI4219
F0.405
sI4221
F0.4898449215629526
sI4223
F0.45
sI4226
F0.0
sI4227
F0.48383891824188957
sI4228
F0.47304449219738764
sI4231
F0.45
sI4234
F0.0
sI4239
F0.49198803698054505
sI4241
F0.45
sI4244
F0.0
sI4245
F0.4829837231772148
sI4246
F0.45440773977728666
sI4250
F0.45375388477858947
sI4254
F0.49027673904650376
sI4256
F0.44811687995444577
sI4257
F0.45
sI4258
F0.5
sI4260
F0.0
sI4264
F0.36450000000000005
sI4267
F0.5
sI4270
I0
sI4275
F0.45
sI4276
F0.5
sI4278
F0.0
sI4282
F0.32805000000000006
sI4297
F0.5
sI4303
F0.45
sI4305
F0.405
sI4306
F0.0
sI4321
F0.541616659954261
sI4323
F0.5
sI4324
F0.8587852317595001
sI4329
F0.4960939372390929
sI4330
F0.499999410431925
sI4332
F0.49146395542022014
sI4334
F0.4914909927362129
sI4336
F0.49999999218117275
sI4342
F1.0
sI4375
F0.47984498697337297
sI4377
F0.49499301973767906
sI4378
F0.49995
sI4383
F0.4143584475345775
sI4384
F0.495
sI4386
F0.49373263161033676
sI4388
F0.4944113712626492
sI4390
F0.5
sI4396
F0.4995
sI4401
F0.49877894990830357
sI4402
F0.5
sI4404
F0.5000834109908483
sI4406
F0.5
sI4408
F0.5
sI4410
F0.5125111775986348
sI4412
F0.5
sI4415
F0.5
sI4416
F0.5
sI4417
F0.5
sI4420
F0.5
sI4422
F0.5
sI4423
F0.5
sI4432
F0.5
sI4438
F0.29524500000000004
sI4440
F0.45
sI4441
F0.0
sI4455
F0.25744766595416096
sI4456
F0.495
sI4458
F0.5026758703991002
sI4460
F0.5044490308640289
sI4462
F0.405
sI4464
F0.504073
sI4466
F0.5
sI4469
F0.50806675
sI4470
F0.5
sI4471
F0.5
sI4474
F0.2657205
sI4476
F0.5650840771612231
sI4477
F0.936908761406224
sI4482
F0.49545
sI4484
F0.45
sI4487
F0.4922232267942905
sI4488
F0.45
sI4489
F0.5
sI4493
F0.5
sI4497
F0.5
sI4499
F0.45
sI4500
F0.11050425192084676
sI4501
F0.496
sI4503
F0.5246749544418995
sI4505
F0.1424962901107277
sI4507
F0.45
sI4510
F0.45
sI4512
F0.2607988851799539
sI4513
F0.17681912908961825
sI4518
F0.45
sI4519
F0.5
sI4521
F0.48645
sI4523
F0.45
sI4525
F0.5
sI4531
F0.1382904983540863
sI4540
F0.32805000000000006
sI4546
F0.45
sI4548
F0.3041732135218626
sI4549
F0.0
sI4564
F0.45
sI4566
F0.4970375037339643
sI4567
F0.491199526823515
sI4572
F0.5552657925387917
sI4573
F0.8970544339526756
sI4575
F0.5153899472967156
sI4577
F0.5058760549182519
sI4579
F1.0
sI4585
F0.49749526823515006
sI4617
F0.4879537538480972
sI4618
F0.5083842624889658
sI4620
F0.5
sI4622
F0.5
sI4624
F0.5
sI4626
F0.500509
sI4628
F0.45
sI4631
F0.5
sI4632
F0.5
sI4633
F0.5
sI4636
F0.5
sI4638
F0.5
sI4639
F0.5
sI4644
F0.5075034848859384
sI4646
F0.45
sI4649
F0.5
sI4650
F0.405
sI4651
F0.5
sI4655
F0.5
sI4659
F0.5
sI4661
F0.5
sI4662
F0.404595
sI4663
F0.5
sI4665
F0.5
sI4667
F0.5
sI4669
F0.5
sI4672
F0.5
sI4674
F0.5
sI4675
F0.5
sI4680
F0.5
sI4681
F0.5
sI4683
F0.5
sI4685
F0.5
sI4687
F0.5
sI4693
F0.5
sI4698
F0.47695498369086886
sI4700
F0.45
sI4703
F0.521661528229708
sI4704
F0.23914845
sI4705
F0.5
sI4709
F0.5
sI4713
F0.5
sI4715
F0.5
sI4716
F0.0465512204055412
sI4717
F0.495
sI4719
F0.499893358693191
sI4721
F0.29524500000000004
sI4723
F0.405
sI4727
F0.0
sI4731
F0.0
sI4742
I0
sI4743
F0.0
sI4748
F0.0
sI4750
F0.0
sI4752
F0.44713963887116115
sI4753
F0.495
sI4755
F0.50109755
sI4757
F0.566020338963355
sI4759
F0.45
sI4761
F0.39027196604590425
sI4763
F0.29524500000000004
sI4766
F0.704755
sI4767
F0.1412147682405
sI4768
F0.5
sI4771
F0.049238545109180555
sI4773
F0.4999956500589453
sI4774
F0.49998877584343104
sI4780
F0.558171059719153
sI4782
F0.49712563350000005
sI4783
F0.5314754806538662
sI4788
F0.2183043920142562
sI4789
F0.9764493565137687
sI4791
F0.48195
sI4793
F0.45
sI4795
F1.0
sI4801
F0.5485148806684271
sI4806
F0.9265693664770868
sI4807
F0.9556853094017375
sI4809
F0.9462999791578972
sI4811
F0.4986779320803078
sI4813
F1.0
sI4815
F0.9452905054342439
sI4817
F0.45
sI4820
F0.9166140915016672
sI4821
F1.0
sI4825
F0.5
sI4827
F0.4992343621030375
sI4828
F0.9641051006154073
sI4837
F0.215233605
sI4843
F0.2657205
sI4845
F0.405
sI4846
F0.0
sI4864
F0.44955
sI4870
F0.45
sI4872
F0.45
sI4873
F0.0
sI4888
F0.5
sI4890
F0.5008341099084825
sI4891
F0.5
sI4896
F0.5
sI4897
F0.5
sI4899
F0.5
sI4901
F0.5
sI4903
F0.5
sI4909
F0.5
sI4942
F0.5
sI4944
F0.4818876618425172
sI4945
F0.43519441049999996
sI4950
F0.36450000000000005
sI4951
F0.5
sI4953
F0.5
sI4955
F0.5
sI4957
F0.45
sI4963
F0.32805000000000006
sI4968
F0.4995
sI4969
F0.5
sI4971
F0.5083410990848254
sI4973
F0.4867472208807209
sI4975
F0.5
sI4977
F0.5
sI4979
F0.405
sI4982
F0.4597907950913002
sI4983
F0.5
sI4984
F0.5
sI4987
F0.36450000000000005
sI4989
F0.5092888324397484
sI4990
F0.9788044208623918
sI4999
F0.12709329141645
sI5005
F0.5
sI5007
F0.45
sI5008
F0.0
sI5053
F0.405
sI5059
F0.45
sI5061
F0.45
sI5062
F0.0
sI5103
F0.4870264314177946
sI5104
F0.45366132390738206
sI5106
F0.5
sI5108
F0.4999955
sI5110
F0.40905
sI5112
F0.5190803738843142
sI5114
F0.29524500000000004
sI5117
F0.5
sI5118
F0.5
sI5119
F0.5
sI5122
F0.40905
sI5124
F0.5
sI5125
F0.495
sI5130
F0.495919
sI5132
F0.50014
sI5135
F0.499955
sI5136
F0.45
sI5137
F0.0
sI5141
F0.5
sI5145
F0.5
sI5147
F0.5
sI5148
F0.5
sI5149
F0.0
sI5151
F0.5
sI5153
F0.5
sI5158
F0.44103837263771617
sI5160
F0.5
sI5161
F0.5
sI5166
F0.45
sI5167
F0.495
sI5169
F0.5
sI5171
F0.5
sI5173
F0.5
sI5179
F0.49955
sI5184
F0.5
sI5186
F0.5
sI5189
F0.4930669603041245
sI5190
F0.45
sI5191
F0.495
sI5195
F0.0
sI5199
F0.0
sI5202
F0.49547699999999995
sI5203
F0.5
sI5205
F0.5923889568003965
sI5207
F0.49998703644021936
sI5209
F0.45
sI5213
F0.5
sI5217
F0.5
sI5219
F0.5
sI5228
F0.0
sI5229
F0.478305
sI5231
F0.45
sI5234
F0.4999904277234003
sI5235
F0.45
sI5236
F0.0
sI5238
F0.5
sI5239
F0.3870092506774162
sI5241
F0.4915147651043581
sI5243
F0.405
sI5245
F0.32805000000000006
sI5247
F0.0
sI5252
F0.0
sI5254
F0.0
sI5257
F0.32805000000000006
sI5259
F0.49190810430980103
sI5260
F0.4853687251408072
sI5266
F0.2657205
sI5268
F0.4808806682534035
sI5269
F0.44091390014935616
sI5274
F0.5921197379077476
sI5275
F0.9249526823515004
sI5277
F0.5376923373979174
sI5279
F0.5633262679352894
sI5281
F1.0
sI5287
F0.2652336008304255
sI5292
F0.2657205
sI5293
F0.0
sI5295
F0.49438321846746347
sI5297
F0.5240050494981615
sI5301
F0.907348990557408
sI5303
F0.5
sI5306
F0.9452905054342439
sI5307
F1.0
sI5313
F0.1741614994380365
sI5314
F0.0
sI5323
F0.34024494824678075
sI5329
F0.405
sI5331
F0.215233605
sI5332
F0.0
sI5346
F0.5013088559013645
sI5348
F0.5
sI5351
F0.5
sI5352
F0.505
sI5353
F0.5
sI5357
F0.5
sI5361
F0.5
sI5363
F0.5
sI5364
F0.5
sI5365
F0.5
sI5367
F0.5
sI5369
F0.5
sI5371
F0.5
sI5375
F0.5014
sI5379
F0.55
sI5381
F0.45
sI5390
F0.5
sI5391
F0.495
sI5393
F0.5
sI5396
F0.5
sI5397
F0.45
sI5398
I0
sI5400
F0.5
sI5401
F0.5
sI5403
F0.5
sI5405
F0.5
sI5407
F0.5
sI5409
F0.5
sI5411
F0.5
sI5414
F0.5
sI5415
F0.5
sI5416
F0.5
sI5419
F0.5
sI5421
F0.5
sI5422
F0.4955
sI5429
F0.5
sI5433
F0.5
sI5435
F0.5
sI5444
I0
sI5445
F0.49003887941313545
sI5447
F0.45
sI5450
F0.499994796137415
sI5451
F0.45
sI5452
F0.5
sI5462
F0.0
sI5474
F0.0
sI5478
F0.0
sI5481
F0.5
sI5483
F0.5
sI5486
F0.4999999999999998
sI5487
F0.45
sI5488
F0.5
sI5492
F0.0
sI5496
F0.0
sI5499
F0.47384176521522586
sI5500
F0.48608346157797977
sI5502
F0.49994609182733846
sI5504
F0.49999999999999956
sI5506
F0.215233605
sI5508
F0.6091656327525007
sI5509
F0.9676945905538666
sI5511
F0.5204692798680195
sI5513
F0.5110882927176181
sI5515
F1.0
sI5517
F0.885616037725195
sI5519
F0.5
sI5522
F0.9764493565137687
sI5523
F1.0
sI5527
F0.405
sI5529
F0.49862123583894763
sI5530
F0.4999999999999993
sI5535
F0.9601167784615637
sI5537
F0.514
sI5540
F0.9641051006154073
sI5541
F1.0
sI5546
F0.5950000000000001
sI5552
F1.0
sI5553
F0.405
sI5554
F0.0
sI5556
F0.4989664869847288
sI5558
F0.49990873899038574
sI5563
F0.5151460021508718
sI5565
F0.4562019747045
sI5566
F0.4999994249642305
sI5571
F0.5
sI5572
F0.9166140915016672
sI5574
F0.38211139341
sI5576
F0.23914845
sI5578
F1.0
sI5584
F0.49999999999999956
sI5590
F0.4091892795
sI5592
F0.5
sI5593
F0.5
sI5598
F0.5
sI5599
F0.49654755
sI5601
F0.5
sI5603
F0.5
sI5605
F0.5
sI5611
F0.45
sI5616
F0.45
sI5617
F0.0
sI5619
F0.5
sI5621
F0.5
sI5625
F0.5
sI5627
F0.5
sI5630
F0.5
sI5631
F0.5
sI5632
I0
sI5637
F0.5
sI5638
F0.0
sI5647
F0.5
sI5653
F0.45
sI5655
F0.5
sI5656
I0
sI5670
F0.2002885551838032
sI5671
F0.5
sI5673
F0.5047080681174965
sI5675
F0.45
sI5677
F0.45
sI5679
F0.0
sI5684
F0.0
sI5686
F0.0
sI5689
F0.5
sI5691
F0.5423287889141789
sI5692
F0.9166140915016672
sI5697
F0.495
sI5699
F0.5
sI5702
F0.4970470913324506
sI5703
F0.45
sI5704
F0.0
sI5708
F0.0
sI5712
I0
sI5715
F0.45
sI5716
F0.0
sI5718
F0.9676945905538666
sI5720
F0.49999966552501957
sI5725
F0.30545100000000003
sI5727
F0.45
sI5728
F0.4905
sI5734
F0.0
sI5736
F0.0
sI5746
F0.32805000000000006
sI5755
F0.36450000000000005
sI5761
F0.46547549999999993
sI5763
F0.2657205
sI5764
F0.0
sI5781
F0.22433573926382616
sI5782
F0.0
sI5787
F0.5
sI5788
F0.0
sI5790
F0.5
sI5792
F0.4999999999993549
sI5836
F0.45
sI5842
F0.45
sI5844
F0.45
sI5845
F0.0
sI5860
F0.5
sI5862
F0.5
sI5863
F0.5
sI5868
F0.5
sI5869
F0.5
sI5871
F0.5
sI5873
F0.5
sI5875
F0.5
sI5881
F0.5
sI5914
F0.405
sI5916
F0.5101305338470251
sI5917
F0.55
sI5922
F0.5171950000000001
sI5923
F0.55
sI5925
F0.55
sI5927
F0.5326705000000002
sI5929
F0.5
sI5935
F0.405
sI5940
F0.45
sI5941
F0.5
sI5943
F0.55
sI5945
F0.45
sI5947
F0.5
sI5949
F0.55
sI5951
F0.5
sI5954
F0.5950000000000001
sI5955
F0.5
sI5956
F0.5
sI5959
F0.505
sI5961
F0.1412147682405
sI5962
F0.55
sI5971
F0.12709329141645
sI5977
F0.5
sI5979
F0.45
sI5980
F0.0
sI6025
F0.45
sI6031
F0.42210000000000003
sI6033
F0.32805000000000006
sI6034
F0.0
sI6076
F0.5
sI6078
F0.5
sI6079
F0.5
sI6084
F0.45
sI6085
F0.5
sI6087
F0.5
sI6089
F0.5
sI6091
F0.45
sI6097
F0.5
sI6102
F0.405
sI6103
F0.5
sI6105
F0.5
sI6107
F0.5
sI6109
F0.5
sI6111
F0.5
sI6113
F0.5
sI6116
F0.5
sI6117
F0.5
sI6118
F0.5
sI6121
F0.5
sI6123
F0.5
sI6124
F0.5
sI6133
F0.5
sI6139
F0.5
sI6141
F0.5
sI6142
I0
sI6156
F0.45
sI6157
F0.5
sI6159
F0.55
sI6161
F0.5
sI6163
F0.5
sI6165
F0.55
sI6167
F0.5
sI6170
F0.5950000000000001
sI6171
F0.5
sI6172
F0.5
sI6175
F0.405
sI6177
F0.23914845
sI6178
F0.5
sI6183
F0.0
sI6188
F0.0
sI6190
I0
sI6194
I0
sI6198
I0
sI6202
F0.0
sI6204
F0.0
sI6211
F0.5
sI6213
F0.5
sI6214
F0.5
sI6219
F0.3058155000000001
sI6220
F0.5
sI6222
F0.55
sI6224
F1.0
sI6226
F0.5
sI6232
F0.2657205
sI6241
F0.2856871945
sI6247
F0.2657205
sI6249
F0.45
sI6250
F0.0
sI6265
F0.505
sI6267
F0.505
sI6268
F0.55
sI6273
F0.45
sI6274
F0.55
sI6276
F0.5
sI6278
F0.45
sI6280
F1.0
sI6286
F1.0
sI6349
F0.5
sI6355
F0.5
sI6357
F0.5
sI6358
I0
sI6403
F0.32805000000000006
sI6409
F0.5
sI6411
F0.23914845
sI6412
F0.0
sI6427
F0.5
sI6429
F0.49941211983895034
sI6430
F0.5
sI6435
F0.5095000000000001
sI6436
F0.55
sI6438
F0.55
sI6440
F0.44387021720277825
sI6442
F0.405
sI6448
F0.405
sI6561
F0.5820803788097874
sI6563
F0.49300720654698205
sI6566
F0.5006637892049783
sI6567
F0.3685613294904376
sI6568
F0.5124251405507203
sI6572
F0.4933201897558032
sI6576
F0.28380752784090746
sI6578
F0.22293949950000005
sI6579
F0.4517725801302348
sI6580
F0.3986756140556844
sI6582
F0.500865994455187
sI6584
F0.4979936956450698
sI6586
F0.36450000000000005
sI6590
F0.5
sI6594
F0.5
sI6596
F0.5
sI6605
F0.5
sI6606
F0.5
sI6608
F0.5
sI6611
F0.4999950761454891
sI6612
F0.5
sI6613
F0.5
sI6615
F0.4622587048928778
sI6616
F0.49312585000000003
sI6618
F0.5013595
sI6620
F0.5
sI6622
F0.45
sI6624
F0.5
sI6626
F0.45
sI6629
F0.5
sI6630
F0.24153993449999997
sI6631
F0.24933965363693805
sI6634
F0.36373097055565307
sI6636
F0.4985855589027327
sI6637
F0.5005
sI6644
F0.5044724631415632
sI6648
F0.49838229540449996
sI6650
F0.5018378895
sI6659
F0.47502449999999996
sI6660
F0.5474504292707244
sI6662
F0.5573324127870245
sI6665
F0.4999982538310975
sI6666
F0.32805000000000006
sI6667
F0.0
sI6677
F0.55
sI6689
F0.9166140915016672
sI6693
F0.5
sI6695
F1.0
sI6696
F0.49589999999999995
sI6698
F0.5
sI6701
F0.5
sI6702
F0.405
sI6703
F0.0
sI6707
F0.5
sI6711
F0.5
sI6713
F0.405
sI6714
F0.405
sI6715
F0.0
sI6717
F0.495
sI6719
F0.36450000000000005
sI6723
F0.5829233339747356
sI6724
F0.5448895746500816
sI6726
F0.5890476743532704
sI6728
F0.5126233047626418
sI6730
F0.5067056746555477
sI6732
F0.6075615742193157
sI6734
F0.23914845
sI6737
F0.5468737925124358
sI6738
F0.2650741191057408
sI6739
F0.8970544339526756
sI6742
F0.36401304616051494
sI6744
F0.5323280479862024
sI6745
F0.9556853094017375
sI6750
F0.5793958551530184
sI6752
F0.49932584999999996
sI6755
F0.5344091504565245
sI6756
F0.5832431471225256
sI6757
F0.9166140915016672
sI6761
F0.4926343498596078
sI6765
F0.9249526823515004
sI6767
F0.45855000000000007
sI6768
F0.47952315090000003
sI6769
F0.5
sI6771
F0.907348990557408
sI6773
F0.502379382115701
sI6775
F0.405
sI6778
F0.5550324171382409
sI6780
F0.5781160795096763
sI6781
F0.9601167784615637
sI6786
F0.23914845
sI6787
F0.885616037725195
sI6789
F0.9764493565137687
sI6791
F0.26837770499999997
sI6793
F0.1937102445
sI6799
F0.505
sI6806
F0.5095226136412899
sI6810
F0.5
sI6812
F0.45
sI6821
F0.0
sI6822
F0.5170635475368244
sI6824
F0.5233002556814196
sI6827
F0.52728459187105
sI6828
F0.5
sI6829
F0.5
sI6839
F0.5
sI6851
F0.5
sI6855
F0.5
sI6857
F1.0
sI6858
F0.49489855828186446
sI6860
F0.4545
sI6863
F0.5
sI6864
F0.36450000000000005
sI6865
F0.5
sI6869
F0.0
sI6873
F0.0
sI6876
F0.500109644909781
sI6877
F0.5005746257303434
sI6879
F0.5089085319391807
sI6881
F0.4995
sI6883
F0.5
sI6893
F0.55
sI6905
F0.8587852317595001
sI6909
F0.5
sI6911
F1.0
sI6941
F0.55
sI6945
F0.5017195
sI6947
F0.5
sI6956
F0.0
sI6957
F0.9461156814843303
sI6959
F0.9673051928362487
sI6962
F0.9860935805278153
sI6963
F0.39032114548908203
sI6964
F0.0
sI6966
F0.693123923048375
sI6968
F0.29524500000000004
sI6971
F0.5443406265565001
sI6972
F0.43152795
sI6973
F0.704755
sI6977
F0.0
sI6981
F0.0
sI6984
F0.656040643476794
sI6985
F0.8970544339526756
sI6987
F0.9392116727047154
sI6989
F0.62001437059
sI6991
F0.505
sI6995
F0.5241412332100001
sI6999
F0.907348990557408
sI7001
F0.5
sI7010
F0.0
sI7011
F0.9452905054342439
sI7013
F0.5991579685450001
sI7016
F0.7608515499999999
sI7017
F0.514
sI7018
F0.55
sI7020
F0.26585151501308674
sI7021
F0.5044371174254779
sI7023
F0.5120765998649247
sI7025
F0.07478922992310638
sI7027
F0.45
sI7029
F0.0
sI7034
F0.0
sI7036
F0.0
sI7039
F0.5009574478287337
sI7041
F0.5511302723664105
sI7042
F0.994013742408719
sI7047
F0.4415655118963628
sI7048
F0.5002101216692932
sI7050
F0.5
sI7052
F0.5
sI7054
F0.45
sI7056
F0.500005
sI7058
F0.49060193685859294
sI7061
F0.5
sI7062
F0.25840869994883936
sI7063
F0.5005
sI7066
F0.36450000000000005
sI7068
F0.4973654023650724
sI7069
F0.5375631346858725
sI7074
F0.4999995
sI7076
F0.499995
sI7079
F0.5
sI7080
F0.5
sI7081
F0.5
sI7085
F0.4999153946251955
sI7089
F0.49995
sI7091
F0.5
sI7092
F0.5
sI7093
F0.5
sI7095
F0.5
sI7097
F0.5
sI7099
F0.5
sI7102
F0.45
sI7104
F0.5
sI7105
F0.5
sI7110
F0.5
sI7111
F0.5
sI7113
F0.5
sI7115
F0.5
sI7117
F0.1937102445
sI7123
F0.45
sI7128
F0.5
sI7130
F0.5
sI7133
F0.5
sI7134
F0.405
sI7135
F0.0
sI7139
F0.5014762091559177
sI7143
F0.495
sI7145
F0.45
sI7146
F0.405
sI7147
F0.0
sI7149
F0.5
sI7151
F0.34524499999999997
sI7157
F0.5043199412459264
sI7161
F0.5
sI7163
F0.5
sI7172
F0.5
sI7173
F0.5606589857999326
sI7175
F0.5455740403665392
sI7178
F0.49999999999999933
sI7179
F0.054709494565756175
sI7180
F0.0
sI7182
F0.5
sI7183
F0.0
sI7185
F0.5
sI7187
F0.5
sI7191
F0.5
sI7193
F0.45
sI7196
F0.5
sI7197
F0.5
sI7198
F0.0
sI7203
F0.5
sI7204
F0.0
sI7210
F0.501501272261935
sI7212
F0.5045845613769212
sI7213
F0.55
sI7218
F0.5901992502850223
sI7219
F0.9324574141163504
sI7221
F0.907348990557408
sI7223
F0.5409950334538036
sI7225
F0.5462339500000002
sI7231
F0.6226003757790726
sI7236
F0.4900350343509446
sI7237
F0.5048610203157996
sI7239
F0.5163278082651485
sI7241
F0.4976830070829857
sI7243
F0.405
sI7245
F0.5606542771105918
sI7247
F0.4924925985960782
sI7250
F0.4999999924600912
sI7251
F0.5582705577509234
sI7252
F0.8970544339526756
sI7255
F0.45
sI7257
F0.496937102445
sI7258
F0.704755
sI7267
F1.0
sI7273
F1.0
sI7275
F1.0
sI7292
F0.5
sI7296
F0.5005
sI7298
F0.5
sI7307
F0.495
sI7308
F0.495
sI7310
F0.5
sI7313
F0.4945289479805513
sI7314
F0.45
sI7315
F0.5
sI7325
F0.5
sI7337
F0.5
sI7341
F0.5
sI7343
F1.0
sI7344
F0.40704996284795986
sI7346
F0.36450000000000005
sI7349
F0.5
sI7350
F0.36450000000000005
sI7351
F0.5
sI7355
F0.5
sI7359
F0.495
sI7361
F0.45
sI7362
F0.29524500000000004
sI7363
F0.39645522839614494
sI7365
F0.4949297468279435
sI7367
F0.45
sI7369
F0.29524500000000004
sI7379
F0.5
sI7391
F0.9392116727047154
sI7395
F0.5
sI7397
F1.0
sI7427
F0.5
sI7431
F0.5
sI7433
F0.5
sI7442
F0.0
sI7443
F0.47097449999999996
sI7445
F0.405
sI7448
F0.5
sI7449
F0.405
sI7450
F0.0
sI7452
F0.6877121910261456
sI7454
F0.34389000000000003
sI7457
F0.48969158477554753
sI7458
F0.35428210377251956
sI7459
F0.55
sI7463
F0.26840292441535946
sI7467
F0.5
sI7469
F0.18321162754500003
sI7470
F0.23914845
sI7471
F0.30658362924852534
sI7473
F0.4940663853079695
sI7475
F0.405
sI7477
F0.23914845
sI7481
F0.5464932356589387
sI7485
F0.9166140915016672
sI7487
F0.405
sI7496
F0.5950000000000001
sI7497
F0.4358177055
sI7499
F0.32805000000000006
sI7502
F0.49999999997932093
sI7503
F0.36450000000000005
sI7504
F0.0
sI7506
F0.29524500000000004
sI7507
F0.8970544339526756
sI7509
F0.9860935805278153
sI7511
F0.45
sI7513
F0.5
sI7515
F0.55
sI7517
F0.215233605
sI7520
F0.55
sI7521
F0.45
sI7522
F0.5950000000000001
sI7525
F0.33367750054342443
sI7527
F0.36450000000000005
sI7528
F0.9452905054342439
sI7541
F0.5
sI7553
F0.5950000000000001
sI7557
F0.5
sI7559
F1.0
sI7589
F0.5
sI7593
F0.5
sI7595
F0.5
sI7604
I0
sI7605
F0.48504812432889294
sI7607
F0.45
sI7610
F0.495
sI7611
F0.45
sI7612
F0.5
sI7676
F0.5
sI7688
F0.9809239787761527
sI7692
F0.9709251314984799
sI7694
F1.0
sI7697
F0.46437704999999996
sI7701
F0.55
sI7703
F0.36450000000000005
sI7712
F0.0
sI7713
F0.5632661008733898
sI7715
F0.405
sI7718
F0.4999998427570407
sI7719
F0.33534
sI7720
F0.5
sI7730
F0.5
sI7742
F0.8062897554999999
sI7746
F0.55
sI7748
F1.0
sI7749
F0.495
sI7751
F0.405
sI7754
F0.4045805671767299
sI7755
F0.45
sI7756
F0.67195
sI7760
F0.0
sI7764
F0.0
sI7767
F0.405
sI7768
F0.49999948646314724
sI7770
F0.49999999999999933
sI7772
F0.0023191988432940502
sI7774
F0.17433922005
sI7776
F0.4057629643902339
sI7778
F0.33534
sI7781
F0.5
sI7782
F0.36450000000000005
sI7783
F0.5
sI7787
F0.4632795
sI7791
F0.18912565988908278
sI7793
F0.1412147682405
sI7794
F0.36450000000000005
sI7795
F0.5
sI7797
F0.49062230404704243
sI7799
F0.45
sI7801
F0.5
sI7805
F0.4930488305531124
sI7809
F0.5
sI7811
F0.45
sI7820
F0.5
sI7821
F0.5
sI7823
F0.45
sI7826
F0.5
sI7827
F0.5
sI7828
I0
sI7830
F0.37260000000000004
sI7831
F0.55
sI7833
F0.5
sI7835
F0.5
sI7837
F0.5
sI7839
F0.5
sI7841
F0.36450000000000005
sI7844
F0.5
sI7845
F0.1412147682405
sI7846
F0.5
sI7849
F0.32805000000000006
sI7851
F0.45
sI7852
F0.5
sI7859
F0.5
sI7863
F0.5
sI7865
F0.5
sI7874
F0.0
sI7875
F0.13242619876399547
sI7877
F0.09727132870086243
sI7880
F0.4941338657178055
sI7881
F0.09872301419849956
sI7882
F0.0
sI7892
F0.5
sI7904
F0.9926095585292827
sI7908
F0.55
sI7910
F1.0
sI7911
F0.5
sI7913
F0.5
sI7916
F0.5
sI7917
F0.5
sI7918
I0
sI7922
F0.0
sI7926
F0.0
sI7929
F0.09265100944259205
sI7930
F0.0
sI7932
F0.5
sI7934
F0.45
sI7938
F0.17433922005
sI7939
F0.5
sI7941
F0.9166140915016672
sI7943
F0.3780499717552176
sI7945
F0.5
sI7947
F0.9392116727047154
sI7949
F0.23456493714044424
sI7952
F0.8970544339526756
sI7953
F0.156905298045
sI7954
F0.5950000000000001
sI7957
F0.23914845
sI7959
F0.36450000000000005
sI7960
F0.7342795
sI7965
F0.4494285
sI7967
F0.156905298045
sI7970
F0.4999999999999993
sI7971
F0.36450000000000005
sI7972
F0.0
sI7976
F0.48794316850849984
sI7980
F0.907348990557408
sI7982
F0.36450000000000005
sI7983
F0.32805000000000006
sI7984
F0.0
sI7986
F0.46937102445
sI7988
F0.012515777524966205
sI7993
F1.0
sI7995
F1.0
sI8001
F1.0
sI8006
F1.0
sI8008
F1.0
sI8014
F1.0
sI8019
F0.38288357427297226
sI8020
F0.501066264105
sI8022
F0.5005
sI8024
F0.5
sI8026
F0.44955
sI8028
F0.26635358019810207
sI8030
F0.23914845
sI8033
F0.5
sI8034
F0.23914845
sI8035
F0.5
sI8038
F0.36450000000000005
sI8040
F0.4986
sI8041
F0.5
sI8046
F0.50049955
sI8048
F0.5
sI8051
F0.5
sI8052
F0.5
sI8053
F0.5
sI8057
F0.5
sI8061
F0.5
sI8063
F0.5
sI8064
F0.505
sI8065
F0.55
sI8067
F0.55
sI8069
F0.5
sI8071
F0.5
sI8074
F0.45
sI8076
F0.505
sI8077
F0.5
sI8082
F0.23914845
sI8083
F0.5
sI8085
F0.55
sI8087
F1.0
sI8089
F0.1937102445
sI8095
F0.5
sI8100
F0.497385
sI8102
F0.50265
sI8105
F0.5
sI8106
F0.5
sI8107
F0.0
sI8111
F0.55
sI8115
F0.5
sI8117
F0.45
sI8118
F0.36450000000000005
sI8119
F0.0
sI8121
F0.4905
sI8123
F0.36450000000000005
sI8129
F0.4905
sI8133
F0.5
sI8135
F0.405
sI8144
F0.5
sI8145
F0.5
sI8147
F0.45
sI8150
F0.5
sI8151
F0.5
sI8152
I0
sI8154
F0.4545
sI8155
F0.0
sI8157
F0.5
sI8159
F1.0
sI8163
F0.5
sI8165
F1.0
sI8169
F0.5
sI8170
F0.0
sI8175
F0.45
sI8176
F0.0
sI8182
F0.49207323257595004
sI8184
F0.4036395953844323
sI8185
F0.55
sI8190
F0.23914845
sI8191
F0.45199786049999996
sI8193
F0.32473831494058475
sI8195
F0.23914845
sI8197
F0.36450000000000005
sI8203
F1.0
sI8208
F0.4963205274026594
sI8209
F0.8970544339526756
sI8211
F0.55
sI8213
F0.5705665604006162
sI8215
F0.5
sI8217
F0.49042964197401306
sI8219
F0.405
sI8222
F0.48353555615397426
sI8223
F0.4488717607019753
sI8224
F0.9166140915016672
sI8227
F1.0
sI8229
F1.0
sI8239
F0.5
sI8245
F0.405
sI8247
F0.23914845
sI8248
F0.0
sI8262
F0.49960962000000003
sI8264
F0.45
sI8267
F0.5
sI8268
F0.5
sI8269
F0.4905
sI8273
F0.0
sI8277
F0.0
sI8280
F0.49998870000000006
sI8281
F0.55
sI8283
F0.5
sI8285
F0.573251167495
sI8287
F0.5
sI8291
F0.5
sI8295
F0.5
sI8297
F0.5
sI8306
I0
sI8307
F0.55
sI8309
F0.5
sI8312
F0.67195
sI8313
F0.5
sI8314
F0.5
sI8316
F0.45
sI8317
F0.5
sI8319
F0.5
sI8321
F1.0
sI8323
F0.45
sI8325
F0.0
sI8332
F0.0
sI8335
F0.5
sI8337
F0.505
sI8338
F0.55
sI8345
F0.5
sI8349
F0.5
sI8351
F0.5
sI8360
F0.0
sI8361
F0.47133899999999995
sI8363
F0.45
sI8366
F0.6355000000000001
sI8367
F0.45
sI8368
F0.0
sI8378
F0.0
sI8390
F0.0
sI8394
I0
sI8397
F0.5
sI8399
F1.0
sI8403
F0.517195
sI8404
F0.0
sI8412
F0.0
sI8415
F0.368145
sI8416
F0.0
sI8418
F0.5
sI8420
F1.0
sI8424
F0.32805000000000006
sI8425
F0.5950000000000001
sI8427
F0.5
sI8429
F0.5
sI8431
F0.45
sI8433
F0.0
sI8438
F0.0
sI8440
F0.0
sI8443
F1.0
sI8445
F1.0
sI8451
F0.55
sI8453
F0.45
sI8456
F0.704755
sI8457
F0.5
sI8458
F0.55
sI8462
F0.0
sI8466
F0.0
sI8469
F1.0
sI8474
F1.0
sI8476
F1.0
sI8479
F0.405
sI8481
F0.026167381651368022
sI8482
F0.5
sI8488
F0.0
sI8490
F0.0
sI8500
F1.0
sI8506
F0.45
sI8508
F0.5
sI8509
F0.5
sI8514
F0.25106969233228665
sI8515
F0.17295296625107
sI8517
F0.49997342795
sI8519
F0.5
sI8521
F0.1412147682405
sI8527
F0.45
sI8532
F0.499995
sI8533
F0.5028172532257864
sI8535
F0.5
sI8537
F0.5
sI8539
F0.5
sI8541
F0.49995
sI8543
F0.49982566077995
sI8546
F0.5
sI8547
F0.4995
sI8548
F0.495
sI8551
F0.5
sI8553
F0.505
sI8554
F0.5
sI8563
F0.5
sI8569
F0.12709329141645
sI8571
F0.5
sI8572
F0.0
sI8586
F0.45
sI8587
F0.0
sI8589
F0.5
sI8591
F0.5
sI8595
F0.5033065181106882
sI8597
F0.5082191564426587
sI8600
F0.5950000000000001
sI8601
F0.45
sI8602
F0.0
sI8607
F0.45
sI8608
F0.0
sI8613
F0.49299240043584386
sI8615
F0.4958356252725805
sI8618
F0.4862108157206343
sI8619
F0.36450000000000005
sI8620
F0.0
sI8624
F0.4604006469980734
sI8628
F0.5
sI8630
F0.44706857697166885
sI8631
F0.08338590849833284
sI8632
F0.0
sI8634
F0.5
sI8636
F0.03230540944613336
sI8643
F0.5
sI8644
I0
sI8649
F0.5
sI8650
F0.0
sI8652
F0.5
sI8654
F1.0
sI8671
F0.5
sI8677
F0.12846731590918792
sI8679
F0.24129260285163262
sI8680
F0.0
sI8695
F0.5233278452978082
sI8697
F0.5428684616559428
sI8698
F0.704755
sI8703
F0.493039253414899
sI8704
F0.4797256626573039
sI8706
F0.4858859553458813
sI8708
F0.494823967996924
sI8710
F0.48776613010703335
sI8716
F1.0
sI8750
F0.5108811340369646
sI8754
F0.4999368466167655
sI8756
F0.36450000000000005
sI8765
F0.5
sI8766
F0.46745219614336453
sI8768
F0.41269500000000003
sI8771
F0.5
sI8772
F0.41269500000000003
sI8773
F0.5
sI8783
F0.5
sI8795
F0.5
sI8799
F0.5
sI8801
F1.0
sI8802
F0.5
sI8804
F0.45
sI8807
F0.5
sI8808
F0.45
sI8809
F0.5
sI8813
F0.5
sI8817
F0.5
sI8819
F0.5
sI8820
F0.45505
sI8821
F0.5
sI8823
F0.5
sI8825
F0.5
sI8827
F0.5
sI8837
F0.55
sI8849
F0.907348990557408
sI8853
F0.9166140915016672
sI8855
F1.0
sI8885
F0.55
sI8889
F0.5
sI8891
F0.45
sI8900
F0.5
sI8901
F0.5
sI8903
F0.45
sI8906
F0.0
sI8907
F0.5
sI8908
F0.0
sI8910
F0.5938692497134351
sI8912
F0.1412147682405
sI8915
F0.5259572852050001
sI8916
F0.23884638932574448
sI8917
F0.49798632074280474
sI8921
F0.4591993489230906
sI8925
F0.48195
sI8927
F0.405
sI8928
F0.17283550774049997
sI8929
F0.5
sI8931
F0.8062897554999999
sI8933
F0.45
sI8935
F0.45
sI8939
F0.48454731405875817
sI8943
F0.5462502257450309
sI8945
F0.23914845
sI8954
F0.5
sI8955
F0.55
sI8957
F0.45
sI8960
F0.55
sI8961
F0.23380524449999998
sI8962
F0.55
sI8964
F0.21048334858842443
sI8965
F0.9556853094017375
sI8967
F0.9788044208623918
sI8969
F0.45
sI8971
F0.36450000000000005
sI8973
F0.9392116727047154
sI8975
F0.29524500000000004
sI8978
F0.5
sI8979
F0.45
sI8980
F0.9166140915016672
sI8983
F0.45
sI8985
F0.45
sI8986
F0.55
sI8999
F0.5
sI9011
F0.6355000000000001
sI9015
F0.5
sI9017
F1.0
sI9047
F0.5
sI9051
F0.5
sI9053
F0.5
sI9062
I0
sI9063
F0.5174577685
sI9065
F0.5
sI9068
F0.5
sI9069
F0.5
sI9070
F0.5
sI9134
F0.5
sI9146
F0.9738326183486319
sI9150
F0.9507614548908194
sI9152
F1.0
sI9155
F0.47458305
sI9159
F0.482805
sI9161
F0.36450000000000005
sI9170
F0.0
sI9171
F0.8970544339526756
sI9173
F0.45
sI9176
F0.7342795
sI9177
F0.45
sI9178
F0.55
sI9188
F0.5
sI9200
F0.7342795
sI9204
F0.6355000000000001
sI9206
F1.0
sI9207
F0.459999
sI9209
F0.405
sI9212
F0.55
sI9213
F0.405
sI9214
F0.45340155000000004
sI9218
F0.0
sI9222
F0.0
sI9225
F0.32805000000000006
sI9226
F0.9809239787761527
sI9228
F0.9828315808985374
sI9230
F0.45
sI9232
F0.36450000000000005
sI9234
F0.49784588360547444
sI9236
F0.36450000000000005
sI9239
F0.5
sI9240
F0.45
sI9241
F0.5
sI9245
F0.4951669198448478
sI9249
F0.5
sI9251
F0.45
sI9252
F0.45
sI9253
F0.5
sI9255
F0.495
sI9257
F0.5
sI9259
F0.5
sI9263
F0.5
sI9267
F0.5
sI9269
F0.5
sI9278
F0.5
sI9279
F0.5
sI9281
F0.5
sI9284
F0.5
sI9285
F0.5
sI9286
F0.5
sI9288
F0.45
sI9289
F0.5
sI9291
F0.5
sI9293
F0.5
sI9295
F0.5
sI9297
F0.5
sI9299
F0.45
sI9302
F0.5
sI9303
F0.45
sI9304
F0.5
sI9307
F0.5
sI9309
F0.5
sI9310
F0.5
sI9317
F0.5
sI9321
F0.5
sI9323
F0.5
sI9332
F0.5
sI9333
F0.5
sI9335
F0.5
sI9338
F0.0
sI9339
F0.5
sI9340
F0.0
sI9350
F0.5950000000000001
sI9362
F0.9898622202047773
sI9366
F0.5
sI9368
F1.0
sI9369
F0.5
sI9371
F0.5
sI9374
I0
sI9375
F0.5
sI9376
F0.0
sI9380
F0.5
sI9384
F0.5
sI9386
F0.5
sI9387
F0.5
sI9388
I0
sI9390
I0
sI9396
F0.22253422005
sI9397
F0.885616037725195
sI9399
F0.55
sI9401
F0.5
sI9403
F0.405
sI9405
F0.9452905054342439
sI9407
F0.41260003923090655
sI9410
F0.9452905054342439
sI9411
F0.405
sI9412
F0.6355000000000001
sI9415
F0.5
sI9417
F0.45
sI9418
F0.704755
sI9423
F0.501355
sI9425
F0.405
sI9428
F0.49511814686208355
sI9429
F0.3447450000000001
sI9430
F0.4954998355634365
sI9434
F0.48100039230906516
sI9438
F0.4999992773176711
sI9440
F0.2657205
sI9441
F0.5
sI9442
F0.5
sI9444
F0.55
sI9446
F0.45
sI9448
F0.45
sI9451
F1.0
sI9453
F1.0
sI9459
F1.0
sI9464
F1.0
sI9466
F1.0
sI9472
F1.0
sI9485
F0.0
sI9497
F0.0
sI9501
F0.0
sI9533
F0.0
sI9537
F0.0
sI9548
F0.0
sI9549
F0.0
sI9554
F0.0
sI9556
F0.0
sI9620
F0.0
sI9632
F0.0
sI9636
I0
sI9641
F0.0
sI9645
F0.0
sI9656
F0.0
sI9657
F0.0
sI9662
F0.0
sI9664
F0.0
sI9674
F0.0
sI9686
F0.0
sI9690
F0.0
sI9693
F0.0
sI9698
F0.0
sI9700
F0.0
sI9704
F0.0
sI9708
F0.0
sI9712
F0.0
sI9714
F0.0
sI9782
I0
sI9794
F0.0
sI9798
F0.0
sI9890
F0.0
sI9902
F0.0
sI9906
F0.0
sI9938
F0.0
sI9942
F0.0
sI9953
I0
sI9954
F0.0
sI9959
F0.0
sI9961
F0.0
sI9965
F0.0
sI9969
F0.0
sI9980
F0.0
sI9981
F0.0
sI9986
F0.0
sI9988
I0
sI9998
F0.0
sI10010
F0.0
sI10014
I0
sI10017
F0.0
sI10022
I0
sI10024
I0
sI10028
F0.0
sI10032
F0.0
sI10036
F0.0
sI10038
F0.0
sI10052
I0
sI10064
F0.0
sI10068
F0.0
sI10100
I0
sI10104
I0
sI10115
I0
sI10116
F0.0
sI10121
F0.0
sI10123
F0.0
sI10125
F0.0
sI10130
F0.0
sI10132
F0.0
sI10136
F0.0
sI10140
F0.0
sI10144
F0.0
sI10146
F0.0
sI10154
F0.0
sI10158
F0.0
sI10169
F0.0
sI10170
F0.0
sI10175
F0.0
sI10177
F0.0
sI10206
F0.5143962994779312
sI10208
F0.5253452450289428
sI10211
F0.55
sI10212
F0.5
sI10213
F0.495
sI10217
F0.55
sI10221
F0.5
sI10223
F0.5
sI10224
F0.45283284903158716
sI10225
F0.55
sI10227
F0.55
sI10229
F0.5
sI10231
F0.45
sI10235
F0.5527614374349328
sI10239
F0.5
sI10241
F0.5
sI10250
F0.5
sI10251
F0.55
sI10253
F0.6123807251954246
sI10256
F0.67195
sI10257
F0.5
sI10258
F0.5
sI10260
F0.5
sI10261
F0.5
sI10263
F0.5
sI10265
F1.0
sI10267
F0.5
sI10269
F0.5
sI10271
F1.0
sI10275
F0.5
sI10276
F0.48645
sI10279
F0.5
sI10281
F0.5
sI10282
F0.5
sI10289
F0.55
sI10293
F0.513149743
sI10295
F0.545610655
sI10304
F0.5950000000000001
sI10305
F0.4064505370909042
sI10307
F0.36450000000000005
sI10310
F0.0
sI10311
F0.35531550000000006
sI10312
F0.0
sI10322
F0.6355000000000001
sI10334
F0.704755
sI10338
F0.55
sI10340
F1.0
sI10341
F0.55
sI10343
F1.0
sI10347
F0.5
sI10348
F0.0
sI10356
F0.6355000000000001
sI10358
F1.0
sI10359
F0.36450000000000005
sI10360
F0.0
sI10362
F0.0
sI10368
F0.5909764237725039
sI10369
F0.9507614548908194
sI10371
F0.9764493565137687
sI10373
F0.5942979406000001
sI10375
F0.512813961312161
sI10377
F0.5673067426611608
sI10379
F0.20028471135143777
sI10382
F0.9676945905538666
sI10383
F0.215233605
sI10384
F0.43988400773268677
sI10387
F1.0
sI10389
F1.0
sI10395
F0.9556853094017375
sI10397
F0.5031268776958984
sI10400
F0.7847663949999999
sI10401
F0.5338809565366537
sI10402
F0.9601167784615637
sI10406
F0.49995866436077846
sI10410
F0.49999999890027347
sI10412
F0.1412147682405
sI10413
F1.0
sI10418
F1.0
sI10420
F1.0
sI10423
F0.5180500000000001
sI10425
F0.514
sI10426
F0.5950000000000001
sI10431
F0.215233605
sI10432
F0.55
sI10434
F0.5950000000000001
sI10436
F1.0
sI10438
F0.32805000000000006
sI10444
F1.0
sI10451
F0.55
sI10455
F0.5
sI10457
F0.505
sI10466
I0
sI10467
F0.55
sI10469
F0.5
sI10472
F0.6355000000000001
sI10473
F0.5
sI10474
F0.5
sI10484
F0.55
sI10496
F0.704755
sI10500
F0.5
sI10502
F1.0
sI10503
F0.55
sI10505
F1.0
sI10509
F0.5
sI10510
F0.5
sI10518
I0
sI10521
F0.5584410550000002
sI10522
F0.67195
sI10524
F0.5950000000000001
sI10526
F1.0
sI10528
F0.5
sI10538
F0.5950000000000001
sI10550
F0.5
sI10554
F0.55
sI10556
F1.0
sI10590
F0.67195
sI10592
F1.0
sI10602
F0.6355000000000001
sI10604
F1.0
sI10608
F0.405
sI10609
F0.0
sI10611
F0.9709251314984799
sI10613
F0.40905
sI10616
F0.704755
sI10617
F0.45
sI10618
F0.704755
sI10622
F0.0
sI10626
F0.0
sI10629
F1.0
sI10634
F1.0
sI10636
F1.0
sI10640
F0.6355000000000001
sI10644
F0.9249526823515004
sI10646
F0.405
sI10655
F0.0
sI10658
F1.0
sI10662
F1.0
sI10665
F0.405
sI10666
F0.55
sI10668
F0.5950000000000001
sI10670
F1.0
sI10672
F0.36450000000000005
sI10674
F0.0
sI10681
F0.0
sI10684
F1.0
sI10686
F1.0
sI10692
F0.4939373330685657
sI10693
F0.5014
sI10695
F0.5
sI10697
F0.5
sI10699
F0.5
sI10701
F0.5391299744945098
sI10703
F0.5131870992242389
sI10706
F0.5950000000000001
sI10707
F0.5
sI10708
F0.495
sI10711
F0.5
sI10713
F0.5
sI10714
F0.5
sI10719
F0.499967195
sI10721
F0.49967195
sI10724
F0.5
sI10725
F0.5
sI10726
F0.5
sI10730
F0.4959677691582095
sI10734
F0.5
sI10736
F0.4753682213865953
sI10737
F0.5
sI10738
F0.5
sI10740
F0.55
sI10742
F0.5
sI10744
F0.45
sI10747
F0.5
sI10749
F0.5
sI10750
F0.5
sI10755
F0.5
sI10756
F0.5
sI10758
F0.5
sI10760
F1.0
sI10762
F0.36450000000000005
sI10768
F0.5
sI10773
F0.4642181965507455
sI10775
F0.40435585155
sI10778
F0.0
sI10779
F0.405
sI10780
F0.0
sI10784
F0.5950000000000001
sI10788
F0.4588009607289653
sI10790
F0.41850319957970306
sI10791
F0.32805000000000006
sI10792
F0.0
sI10794
F0.0
sI10802
F0.48923517277036177
sI10806
F0.4835076409920421
sI10808
F0.47889087574473677
sI10817
F0.49461236816784704
sI10818
F0.5
sI10820
F0.36450000000000005
sI10823
F0.0
sI10824
F0.45
sI10825
F0.0
sI10827
F0.405
sI10828
F0.0
sI10830
F0.0
sI10836
F0.5
sI10838
F1.0
sI10842
F0.405
sI10843
F0.0
sI10849
I0
sI10855
F0.5221
sI10857
F0.5293899999999999
sI10858
F0.67195
sI10863
F0.5378265111865966
sI10864
F0.9641051006154073
sI10866
F0.9507614548908194
sI10868
F0.4939481008288989
sI10870
F0.46309297861430976
sI10876
F1.0
sI10881
F0.51355
sI10882
F0.9166140915016672
sI10884
F0.67195
sI10886
F0.4960455354587776
sI10888
F0.49999835563436534
sI10890
F0.4999999999853088
sI10892
F0.49999901412884484
sI10895
F0.49999999709850584
sI10896
F0.49999999999999956
sI10897
F0.4999999999999998
sI10900
F1.0
sI10902
F1.0
sI10912
F1.0
sI10918
F1.0
sI10920
F1.0
sI10935
F0.3503113259629114
sI10936
F0.5
sI10938
F0.4994625910335056
sI10940
F0.4986707672017475
sI10942
F0.405
sI10944
F0.37633218463166473
sI10946
F0.32805000000000006
sI10949
F0.49167186416408815
sI10950
F0.23914845
sI10951
F0.5
sI10954
F0.36450000000000005
sI10956
F0.5029615227743556
sI10957
F0.5056080572220175
sI10962
F0.5
sI10964
F0.5
sI10967
F0.4999141072416394
sI10968
F0.5
sI10969
F0.5
sI10973
F0.5
sI10977
F0.5
sI10979
F0.5
sI10980
F0.5
sI10981
F0.5
sI10983
F0.5075622271229024
sI10985
F0.4999507614548908
sI10987
F0.5
sI10990
F0.45
sI10992
F0.4986
sI10993
F0.4905
sI10998
F0.32805000000000006
sI10999
F0.5
sI11001
F0.5
sI11003
F0.45
sI11005
F0.22383922005
sI11011
F0.45
sI11016
F0.2186383171686634
sI11018
F0.19477922807755396
sI11021
F0.5030618381147751
sI11022
F0.17433922005
sI11023
F0.0
sI11027
F0.5
sI11031
F0.5
sI11033
F0.405
sI11034
F0.1412147682405
sI11035
F0.0
sI11037
F0.49997387322503484
sI11039
F0.4999982285013583
sI11045
F0.495
sI11049
F0.5
sI11051
F0.45
sI11060
F0.5
sI11061
F0.495
sI11063
F0.5
sI11066
F0.49999999996593086
sI11067
F0.5
sI11068
I0
sI11070
F0.19801491659999998
sI11071
F0.0
sI11073
F0.5
sI11075
F0.5
sI11079
F0.5
sI11081
F0.5
sI11084
F0.5
sI11085
F0.5
sI11086
F0.0
sI11091
F0.29524500000000004
sI11092
F0.0
sI11098
F0.5001483338939181
sI11100
F0.43770968062962107
sI11101
F0.5070624122889824
sI11106
F0.1937102445
sI11107
F0.5
sI11109
F0.3603030441634799
sI11111
F0.27132214873478655
sI11113
F1.0
sI11119
F0.5497916156495827
sI11124
F0.4999815
sI11125
F0.5
sI11127
F0.501229
sI11129
F0.4901517514732088
sI11131
F1.0
sI11133
F0.885616037725195
sI11135
F0.45
sI11138
F0.49999949710723224
sI11139
F1.0
sI11143
F0.5
sI11145
F0.5381463501004004
sI11146
F0.7342795
sI11155
F0.5
sI11161
F0.5
sI11163
F0.2657205
sI11164
F0.0
sI11178
F0.495
sI11180
F0.45
sI11183
F0.5
sI11184
F0.5
sI11185
F0.5
sI11189
F0.0
sI11193
F0.0
sI11196
F0.5
sI11197
F0.5
sI11199
F0.5132553105327886
sI11201
F0.4996355
sI11203
F0.5
sI11207
F0.5
sI11211
F0.5
sI11213
F0.5
sI11222
I0
sI11223
F0.5
sI11225
F0.5
sI11228
F0.4995076145489082
sI11229
F0.45
sI11230
F0.5
sI11232
F0.45
sI11233
F0.5
sI11235
F0.5
sI11237
F0.5
sI11239
F0.5
sI11241
F0.0
sI11246
F0.0
sI11248
F0.0
sI11251
F0.5
sI11253
F0.5
sI11254
F0.5
sI11261
F0.1380560183703271
sI11265
F0.5
sI11267
F0.10256322270383282
sI11276
F0.0
sI11277
F0.5
sI11279
F0.10991059222754204
sI11282
F0.49999944240093674
sI11283
F0.5
sI11284
F0.0
sI11294
F0.0
sI11306
F0.0
sI11310
F0.0
sI11313
F0.495
sI11315
F0.11358423242800066
sI11318
F0.67195
sI11319
F0.5
sI11320
F0.0
sI11324
F0.0
sI11328
F0.0
sI11331
F0.45
sI11332
F0.0
sI11334
F0.49999999914710863
sI11336
F0.499999999999999
sI11340
F0.31693215699907795
sI11341
F0.9249526823515004
sI11343
F0.5121165699907795
sI11345
F0.4999979519929823
sI11347
F1.0
sI11349
F0.0
sI11354
F0.0
sI11359
F0.521695
sI11361
F0.5976306999077944
sI11362
F0.9676945905538666
sI11367
F0.9166140915016672
sI11369
F0.5
sI11372
F0.4952781530184622
sI11373
F1.0
sI11378
F0.0
sI11385
F0.5221
sI11386
F0.67195
sI11388
F0.7847663949999999
sI11390
F0.4964105100615405
sI11392
F1.0
sI11395
F0.29524500000000004
sI11397
F0.10990041143067124
sI11398
F0.4999357663743684
sI11404
F0.0
sI11406
F0.0
sI11416
F0.4996788318718419
sI11422
F0.5
sI11424
F0.4986
sI11425
F0.4905
sI11430
F0.32874232680672
sI11431
F0.5
sI11433
F0.49047608515499996
sI11435
F0.491600566079094
sI11437
F0.5
sI11443
F0.44955
sI11448
F0.5
sI11449
F0.5
sI11451
F0.5
sI11453
F0.49955
sI11455
F0.5
sI11457
F0.5018916283405288
sI11459
F0.49931085155
sI11462
F0.4999999999999991
sI11463
F0.5
sI11464
F0.5
sI11467
F0.5
sI11469
F0.5
sI11470
F0.495
sI11479
F0.45
sI11485
F0.5
sI11487
F0.45
sI11488
F0.0
sI11502
F0.1937102445
sI11503
F0.0
sI11505
F0.5
sI11507
F0.5
sI11511
F0.25552891851808995
sI11513
F0.17433922005
sI11516
F0.4728101265329923
sI11517
F0.215233605
sI11518
F0.0
sI11523
F0.23914845
sI11524
F0.0
sI11529
F0.5
sI11531
F0.5
sI11534
F0.49704754999984146
sI11535
F0.5
sI11536
I0
sI11540
F0.5
sI11544
F0.5
sI11546
F0.5
sI11547
F0.049238545109180555
sI11548
F0.0
sI11550
F0.49999999999999933
sI11552
F0.49999999999999956
sI11559
F0.5
sI11560
F0.0
sI11565
F0.1937102445
sI11566
F0.0
sI11568
F0.5
sI11570
F0.405
sI11587
F0.45
sI11593
F0.5
sI11595
F0.2705951529078222
sI11596
F0.0
sI11611
F0.45
sI11613
F0.49815
sI11614
F0.486
sI11619
F0.5203201845489724
sI11620
F0.907348990557408
sI11622
F0.4999999679031636
sI11624
F0.49999999999999956
sI11626
F1.0
sI11632
F0.405
sI11664
F0.50630223220893
sI11666
F0.5
sI11669
F0.5
sI11670
F0.505
sI11671
F0.5
sI11675
F0.5
sI11679
F0.55
sI11681
F0.45
sI11682
F0.5
sI11683
F0.495
sI11685
F0.4998261044828456
sI11687
F0.4993980044888545
sI11689
F0.45
sI11693
F0.5
sI11697
F0.5
sI11699
F0.5
sI11708
F0.5
sI11709
F0.5
sI11711
F0.5
sI11714
F0.4993976065544029
sI11715
F0.5
sI11716
F0.0
sI11718
F0.36655965843413907
sI11719
F0.50347
sI11721
F0.5021235
sI11723
F0.5
sI11725
F0.5
sI11727
F0.2987914978219218
sI11729
F0.23914845
sI11732
F0.5
sI11733
F0.23914845
sI11734
F0.55
sI11737
F0.32805000000000006
sI11739
F0.4854818032728987
sI11740
F0.47043204861417176
sI11747
F0.49999999792765304
sI11751
F0.5
sI11753
F0.5
sI11762
F0.0
sI11763
F0.5
sI11765
F0.5
sI11768
F0.49998139646761963
sI11769
F0.5
sI11770
I0
sI11780
F0.5
sI11792
F0.5
sI11796
F0.5
sI11798
F1.0
sI11799
F0.5
sI11801
F0.4999999792765305
sI11804
F0.4999997927653049
sI11805
F0.5
sI11806
F0.0
sI11810
F0.0
sI11814
F0.0
sI11817
F0.45
sI11818
F0.0
sI11820
F0.49548357915353464
sI11822
F0.49999848925907264
sI11826
F0.6474540318539865
sI11827
F0.9249526823515004
sI11829
F0.5422598754737792
sI11831
F0.492180140472317
sI11833
F1.0
sI11835
F0.9249526823515004
sI11837
F0.215233605
sI11840
F0.49999580742707944
sI11841
F1.0
sI11845
F0.23914845
sI11847
F0.4957029352414289
sI11848
F0.49682107613309257
sI11853
F0.9738326183486319
sI11855
F0.553698688455141
sI11858
F0.4999995358862732
sI11859
F1.0
sI11864
F0.9392116727047154
sI11870
F1.0
sI11871
F0.32805000000000006
sI11872
F0.0
sI11874
F0.49923157847359995
sI11876
F0.49999999999999656
sI11881
F0.5221
sI11883
F0.5052680127782518
sI11884
F0.6355000000000001
sI11889
F0.24190524449999998
sI11890
F0.55
sI11892
F0.6355000000000001
sI11894
F0.1937102445
sI11896
F1.0
sI11902
F0.4994229192066742
sI11909
F0.5
sI11913
F0.5
sI11915
F0.5
sI11924
F0.0
sI11925
F0.5
sI11927
F0.5
sI11930
F0.4983164813466172
sI11931
F0.5
sI11932
F0.5
sI11942
F0.5
sI11954
F0.5
sI11958
F0.5
sI11960
F1.0
sI11961
F0.48902023524611515
sI11963
F0.405
sI11966
F0.5
sI11967
F0.405
sI11968
F0.5
sI11972
F0.0
sI11976
F0.0
sI11979
F0.4788359129161063
sI11980
F0.49012881141242726
sI11982
F0.47801238970074417
sI11984
F0.41536536354500003
sI11986
F0.45
sI11996
F0.55
sI12008
F0.55
sI12012
F0.5
sI12014
F1.0
sI12044
F0.4705695
sI12048
F0.5
sI12050
F0.36450000000000005
sI12059
F0.0
sI12060
F0.4413226441025083
sI12062
F0.4529387732117179
sI12065
F0.4999999999999998
sI12066
F0.2657205
sI12067
F0.0
sI12069
F0.9452905054342439
sI12071
F0.45
sI12074
F0.4999999999338643
sI12075
F1.0
sI12080
F0.0
sI12087
F0.5325088145065175
sI12088
F0.907348990557408
sI12090
F0.49990455856561955
sI12092
F0.49999999999999956
sI12094
F1.0
sI12098
F0.9392116727047154
sI12104
F1.0
sI12114
F0.907348990557408
sI12116
F0.4999999999999996
sI12119
F0.4999999999999998
sI12120
F1.0
sI12123
F0.405
sI12124
F0.9166140915016672
sI12126
F0.44704271418602404
sI12128
F0.06078832729528464
sI12130
F1.0
sI12132
F0.0
sI12137
F0.0
sI12142
F0.4999999714777735
sI12144
F0.49999999999999956
sI12145
F0.4999999999999998
sI12150
F0.364592346032122
sI12151
F0.495
sI12153
F0.5
sI12155
F0.5
sI12157
F0.5
sI12159
F0.5038750000000001
sI12161
F0.405
sI12164
F0.49999985712500206
sI12165
F0.15076898796645
sI12166
F0.5
sI12169
F0.45
sI12171
F0.46789848917010607
sI12172
F0.40253998544999997
sI12177
F0.5
sI12179
F0.4970679123413346
sI12182
F0.5
sI12183
F0.5
sI12184
I0
sI12188
F0.49222861096954995
sI12192
F0.55
sI12194
F0.45
sI12195
F0.5
sI12196
F0.0
sI12198
F0.5
sI12200
F0.4978967993971592
sI12205
F0.5
sI12207
F0.506295
sI12208
F0.55
sI12213
F0.23914845
sI12214
F0.5
sI12216
F0.55
sI12218
F0.45
sI12220
F0.5
sI12226
F0.2657205
sI12231
F0.2820561152933059
sI12233
F0.215233605
sI12236
F0.5
sI12237
F0.1937102445
sI12238
F0.0
sI12242
F0.0
sI12246
F0.0
sI12249
F0.10294556604732451
sI12250
F0.0
sI12252
F0.49956175856710994
sI12254
F0.4999486729398376
sI12260
F0.49063543002810395
sI12264
F0.5
sI12266
F0.45
sI12275
F0.0
sI12276
F0.5
sI12278
F0.4760844351264678
sI12281
F0.4999999999999998
sI12282
F0.5
sI12283
I0
sI12285
F0.215233605
sI12286
F0.0
sI12288
F0.4905
sI12290
F0.45
sI12294
F0.0
sI12299
F0.0
sI12301
I0
sI12306
F0.2657205
sI12307
F0.0
sI12313
F0.405
sI12315
F0.5302103660456468
sI12316
F0.907348990557408
sI12321
F0.533035
sI12322
F0.67195
sI12324
F0.9166140915016672
sI12326
F0.4999997760963781
sI12328
F1.0
sI12334
F0.17433922005
sI12339
F0.32805000000000006
sI12340
F0.0
sI12342
F0.4999833515076346
sI12344
F0.49999999999999956
sI12348
F0.9324574141163504
sI12350
F0.4843094701954997
sI12353
F0.4999999999999998
sI12354
F1.0
sI12360
F0.09265100944259205
sI12361
F0.0
sI12370
F1.0
sI12376
F1.0
sI12378
F1.0
sI12394
F0.45
sI12396
F0.4995
sI12397
F0.495
sI12402
F0.220016574
sI12403
F0.495
sI12405
F0.5
sI12407
F0.36450000000000005
sI12409
F0.5
sI12415
F0.45
sI12420
F0.5
sI12421
F0.5
sI12423
F0.5
sI12425
F0.5
sI12427
F0.5
sI12429
F0.5
sI12431
F0.5
sI12434
F0.5
sI12435
F0.5
sI12436
F0.5
sI12439
F0.5
sI12441
F0.5
sI12442
F0.5
sI12451
F0.45
sI12457
F0.45
sI12459
F0.5
sI12460
F0.0
sI12474
F0.1937102445
sI12475
F0.0
sI12477
F0.501083398663079
sI12479
F0.5076078771048113
sI12483
F0.5
sI12485
F0.5
sI12488
F0.5950000000000001
sI12489
F0.5
sI12490
I0
sI12495
F0.2657205
sI12496
F0.0
sI12501
F0.5
sI12503
F0.45
sI12506
F0.4766961513732132
sI12507
F0.5
sI12508
I0
sI12512
F0.5
sI12516
F0.5
sI12518
F0.5
sI12519
F0.45
sI12520
F0.0
sI12522
F0.5
sI12524
F0.07504731764849956
sI12531
F0.5
sI12532
F0.0
sI12537
F0.5
sI12538
I0
sI12540
F0.5
sI12542
F1.0
sI12559
F0.5
sI12565
F0.405
sI12567
F0.23914845
sI12568
F0.0
sI12583
F0.5
sI12585
F0.49905
sI12586
F0.5
sI12591
F0.45
sI12592
F0.55
sI12594
F0.4905
sI12596
F0.29524500000000004
sI12598
F1.0
sI12604
F1.0
sI12636
F0.45
sI12637
F0.5
sI12639
F0.5
sI12641
F0.5
sI12643
F0.45
sI12645
F0.0
sI12650
F0.0
sI12652
F0.0
sI12655
F0.5
sI12657
F0.5
sI12658
F0.5
sI12663
F0.5
sI12665
F0.5
sI12668
F0.5
sI12669
F0.5
sI12670
F0.5
sI12674
I0
sI12678
I0
sI12681
F0.5
sI12682
F0.5
sI12684
F0.5
sI12686
F0.5
sI12688
F0.5
sI12691
F0.5
sI12693
F0.5
sI12694
F0.5
sI12700
I0
sI12702
I0
sI12712
F0.5
sI12717
F0.5
sI12719
F0.10294556604732451
sI12722
F0.5950000000000001
sI12723
F0.5
sI12724
F0.0
sI12728
F0.0
sI12732
I0
sI12735
F0.405
sI12736
F0.0
sI12738
F0.5
sI12740
F0.17433922005
sI12746
F0.0
sI12750
I0
sI12761
I0
sI12762
F0.0
sI12767
F0.0
sI12769
I0
sI12771
F0.45
sI12772
F0.0
sI12774
F0.5
sI12776
F1.0
sI12780
F0.0
sI12787
I0
sI12792
F0.1412147682405
sI12793
F0.0
sI12799
F0.45
sI12801
F0.5
sI12802
F0.5950000000000001
sI12808
F0.0
sI12810
F0.0
sI12820
F1.0
sI12825
F0.5
sI12826
F0.5
sI12828
F0.55
sI12830
F0.45
sI12832
F1.0
sI12834
F0.0
sI12839
F0.0
sI12844
F1.0
sI12846
F1.0
sI12856
F0.45
sI12865
F0.0
sI12883
F0.45
sI12889
F0.128237131039198
sI12891
F0.4997342795
sI12892
F0.0
sI12907
F0.5
sI12909
F0.5
sI12910
F0.5
sI12915
F0.498195
sI12916
F0.48195
sI12918
F0.497342795
sI12920
F0.47342795
sI12922
F0.405
sI12928
F0.5
sI12963
F0.5
sI12964
F0.0
sI12969
F0.215233605
sI12970
F0.0
sI12972
F0.5
sI12974
F0.4574696866896001
sI12987
F0.45
sI12988
F0.0
sI12990
F0.4941211983895033
sI12992
F0.4561292916569096
sI12996
F0.5
sI12998
F0.42295160377251956
sI13001
F0.4898622202047773
sI13002
F0.5
sI13003
F0.0
sI13008
F0.029074868501520024
sI13009
F0.0
sI13026
F0.5
sI13027
I0
sI13072
F0.45
sI13078
F0.405
sI13080
F0.215233605
sI13081
F0.0
sI13123
F0.49838828073749764
sI13125
F0.49591106738481566
sI13126
F0.504798420676786
sI13131
F0.409689531730265
sI13132
F0.5
sI13134
F0.495
sI13136
F0.5
sI13138
F0.5
sI13144
F0.5190871157644772
sI13149
F0.4957644103014126
sI13150
F0.49995
sI13152
F0.5
sI13154
F0.5
sI13156
F0.5
sI13158
F0.49995
sI13160
F0.5
sI13163
F0.5
sI13164
F0.5
sI13165
F0.5
sI13168
F0.45
sI13170
F0.5
sI13171
F0.55
sI13180
F0.45002956499999996
sI13186
F0.29819745
sI13188
F0.5
sI13189
F0.0
sI13203
F0.4969932225278827
sI13204
F0.5168341537341631
sI13206
F0.5005
sI13208
F0.45
sI13210
F0.46844484809729214
sI13212
F0.5047855353151078
sI13214
F0.5
sI13217
F0.5
sI13218
F0.5
sI13219
F0.4999715182367861
sI13222
F0.5559605836404112
sI13224
F0.10363091269865526
sI13225
F0.9249526823515004
sI13230
F0.49831617239947074
sI13232
F0.32805000000000006
sI13235
F0.5
sI13236
F0.45
sI13237
F0.495
sI13241
F0.5
sI13245
F0.5
sI13247
F0.5
sI13248
F0.12820565424400454
sI13249
F0.9166140915016672
sI13251
F0.55
sI13253
F0.45
sI13255
F0.45
sI13258
F0.500095
sI13260
F0.23914845
sI13261
F0.5
sI13266
F0.5
sI13267
F0.5
sI13269
F0.5
sI13271
F0.5
sI13273
F0.5
sI13279
F0.45
sI13288
F0.1412147682405
sI13294
F0.3267332828596229
sI13296
F0.33428295
sI13297
F0.0
sI13312
F0.29524500000000004
sI13314
F0.5035907700000001
sI13315
F0.47097449999999996
sI13320
F0.5095755
sI13321
F0.4905
sI13323
F0.5
sI13325
F1.0
sI13327
F0.45
sI13333
F0.405
sI13365
F0.49470587558567136
sI13366
F0.5012935188486026
sI13368
F0.5015454014841565
sI13370
F0.5
sI13372
F0.4995
sI13374
F0.5033139264158213
sI13376
F0.49863640499999995
sI13379
F0.5
sI13380
F0.5
sI13381
F0.5
sI13384
F0.49949990875998185
sI13386
F0.5
sI13387
F0.510416740733066
sI13392
F0.5005471289658819
sI13394
F0.45
sI13397
F0.5
sI13398
F0.41355000000000003
sI13399
F0.4905
sI13403
F0.55
sI13407
F0.5
sI13409
F0.5
sI13410
F0.45
sI13411
F0.495
sI13413
F0.5
sI13415
F0.5
sI13417
F0.45
sI13420
F0.4995
sI13422
F0.5
sI13423
F0.495
sI13428
F0.5
sI13429
F0.5
sI13431
F0.5
sI13433
F0.5
sI13435
F0.4995
sI13441
F0.49790530468893307
sI13446
F0.4949737928685451
sI13448
F0.44955
sI13451
F0.5
sI13452
F0.22618719450000002
sI13453
F0.495
sI13457
F0.47097449999999996
sI13461
F0.495
sI13463
F0.405
sI13464
F0.025841437315109687
sI13465
F0.49999947902635034
sI13467
F0.495
sI13469
F0.405
sI13471
F0.215233605
sI13475
F0.0
sI13479
F0.0
sI13490
F0.0
sI13491
F0.0
sI13496
F0.0
sI13498
F0.0
sI13500
F0.4965557453218215
sI13501
F0.4999001529387405
sI13503
F0.49735
sI13505
F0.49905
sI13507
F0.4995
sI13509
F0.49897
sI13511
F0.45
sI13514
F0.5
sI13515
F0.142626915922905
sI13516
F0.5
sI13519
F0.4999999998163962
sI13521
F0.23914845
sI13522
F0.49999999999999933
sI13528
F0.5032014898674251
sI13530
F0.510450285229107
sI13531
F0.5316672547899823
sI13536
F0.5342942178187576
sI13537
F0.5251971226596502
sI13539
F0.9887358002275304
sI13541
F1.0
sI13543
F0.5188987642075665
sI13549
F0.6085024729949168
sI13554
F0.5354415696510533
sI13555
F0.5594509489026066
sI13557
F0.55
sI13559
F1.0
sI13561
F0.45
sI13563
F0.9887358002275304
sI13565
F1.0
sI13569
F0.505
sI13570
F0.996818657279432
sI13573
F0.405
sI13575
F0.5
sI13576
F0.7608515499999999
sI13585
F0.45
sI13591
F0.013673010418501065
sI13593
F0.36450000000000005
sI13594
F0.0
sI13612
F0.405
sI13618
F0.45
sI13620
F0.5
sI13621
F0.0
sI13636
F0.4995
sI13638
F0.5
sI13639
F0.5
sI13644
F0.4995
sI13645
F0.495
sI13647
F0.5
sI13649
F0.5
sI13651
F0.5
sI13657
F1.0
sI13690
F0.5
sI13692
F0.45
sI13693
F0.5
sI13698
F0.379485
sI13699
F0.5
sI13701
F0.5
sI13703
F0.5
sI13705
F0.45
sI13711
F1.0
sI13716
F0.5002700943968242
sI13717
F0.5
sI13719
F0.55
sI13721
F0.45
sI13723
F0.5
sI13725
F0.49585397198412134
sI13727
F0.45
sI13730
F0.5
sI13731
F0.45
sI13732
F0.5
sI13735
F1.0
sI13737
F1.0
sI13747
F0.5
sI13753
F0.5
sI13755
F0.5
sI13756
I0
sI13801
F0.405
sI13807
F0.45
sI13809
F0.45
sI13810
F0.0
sI13851
F0.4539518606118693
sI13852
F0.491159745
sI13854
F0.5
sI13856
F0.505
sI13858
F0.45
sI13860
F0.34744292176397423
sI13862
F0.29524500000000004
sI13865
F0.5
sI13866
F0.32772195
sI13867
F0.5
sI13870
F0.405
sI13872
F0.5
sI13873
F0.55
sI13878
F0.5
sI13880
F0.505
sI13883
F0.55
sI13884
F0.5
sI13885
F0.0
sI13889
F0.5
sI13893
F0.5
sI13895
F0.5
sI13896
F0.5
sI13897
F0.0
sI13899
F0.5
sI13901
F0.5
sI13906
F0.49779
sI13908
F0.5
sI13909
F0.5003285
sI13914
F0.29524500000000004
sI13915
F0.48645
sI13917
F0.5
sI13919
F0.5
sI13921
F0.45
sI13927
F0.503285
sI13932
F0.49652520471055966
sI13934
F0.405
sI13937
F0.5
sI13938
F0.37722195000000003
sI13939
F0.41178765622905
sI13943
F0.0
sI13947
F0.0
sI13950
F0.5215766174293689
sI13951
F0.9324574141163504
sI13953
F0.5950000000000001
sI13955
F0.29524500000000004
sI13957
F0.33534
sI13961
F0.5
sI13965
F0.495
sI13967
F0.5
sI13976
I0
sI13977
F0.67195
sI13979
F0.45
sI13982
F0.5
sI13983
F0.45
sI13984
F0.0
sI13986
F0.45
sI13987
F0.50095
sI13989
F0.5
sI13991
F0.5
sI13993
F0.36450000000000005
sI13995
F0.0
sI14000
I0
sI14002
F0.0
sI14005
F0.5135500000000001
sI14007
F0.45
sI14008
F0.55
sI14014
F0.32805000000000006
sI14016
F0.46135779562371465
sI14017
F0.382795597420695
sI14022
F0.31794660302116284
sI14023
F0.2370305051394582
sI14025
F0.5950000000000001
sI14027
F1.0
sI14029
F0.18153972647565006
sI14035
F0.2657205
sI14040
F0.23914845
sI14041
F0.0
sI14043
F0.5950000000000001
sI14045
F1.0
sI14049
F0.5
sI14051
F1.0
sI14055
F0.5
sI14056
F0.0
sI14061
F0.2572602445
sI14062
F0.0
sI14071
F0.29524500000000004
sI14077
F0.17433922005
sI14079
F0.5
sI14080
F0.0
sI14094
F0.5084076114011643
sI14096
F0.5
sI14099
F0.5
sI14100
F0.49905
sI14101
F0.5
sI14105
F0.5
sI14109
F0.4905
sI14111
F0.45
sI14112
F0.5
sI14113
F0.5
sI14115
F0.5
sI14117
F0.5
sI14119
F0.5
sI14123
F0.5
sI14127
F0.5
sI14129
F0.5
sI14138
F0.5
sI14139
F0.5
sI14141
F0.5
sI14144
F0.5
sI14145
F0.5
sI14146
I0
sI14148
F0.4999955
sI14149
F0.5
sI14151
F0.5
sI14153
F0.5
sI14155
F0.5
sI14157
F0.499955
sI14159
F0.5
sI14162
F0.5
sI14163
F0.45
sI14164
F0.495
sI14167
F0.49955
sI14169
F0.5
sI14170
F0.4865731839927341
sI14177
F0.495
sI14181
F0.5
sI14183
F0.5
sI14192
F0.0
sI14193
F0.463212982260636
sI14195
F0.405
sI14198
F0.5
sI14199
F0.45
sI14200
F0.495
sI14210
I0
sI14222
F0.0
sI14226
F0.0
sI14229
F0.49125899546693913
sI14231
F0.45
sI14234
F0.4905
sI14235
F0.45
sI14236
F0.495
sI14240
F0.0
sI14244
F0.0
sI14247
F0.4575899546693915
sI14248
F0.49999244868665144
sI14250
F0.46190910100368043
sI14252
F0.0675425858836496
sI14254
F0.49999999999819245
sI14256
F0.4940386416036054
sI14257
F0.4787512023545959
sI14259
F0.5950000000000001
sI14261
F1.0
sI14263
F0.45
sI14265
F0.9887358002275304
sI14267
F1.0
sI14271
F0.5
sI14272
F0.997680801156706
sI14275
F0.45
sI14277
F0.5541650464655065
sI14278
F0.4999988281740213
sI14283
F0.5950000000000001
sI14285
F1.0
sI14289
F0.5
sI14290
F0.0
sI14298
F0.55
sI14300
F1.0
sI14301
F0.45
sI14302
F0.0
sI14304
F0.9166140915016672
sI14306
F1.0
sI14311
F0.47351403735381603
sI14313
F0.5251460821046943
sI14314
F0.4999160404427231
sI14319
F0.5136355
sI14320
F0.46578052631670347
sI14322
F0.885616037725195
sI14324
F1.0
sI14326
F0.48428990320577336
sI14332
F0.4999999998016097
sI14338
F0.45
sI14340
F0.5
sI14341
F0.5
sI14346
F0.29524500000000004
sI14347
F0.5
sI14349
F0.5
sI14351
F0.5
sI14353
F0.5
sI14359
F1.0
sI14364
F0.45
sI14365
F0.0
sI14367
F0.5
sI14369
F0.5
sI14373
F0.495
sI14375
F0.5
sI14378
F0.5
sI14379
F0.45
sI14380
F0.0
sI14385
F1.0
sI14395
F0.5
sI14401
F0.45
sI14403
F0.5
sI14404
I0
sI14418
F0.1937102445
sI14419
F0.5
sI14421
F0.5
sI14423
F0.45
sI14425
F0.32805000000000006
sI14427
F0.0
sI14432
I0
sI14434
F0.0
sI14437
F1.0
sI14439
F1.0
sI14445
F0.5
sI14447
F0.5
sI14450
F0.5
sI14451
F0.5
sI14452
I0
sI14456
F0.0
sI14460
F0.0
sI14463
F1.0
sI14468
F1.0
sI14473
F0.45
sI14475
F0.5
sI14476
F0.5
sI14482
F0.0
sI14484
I0
sI14494
F1.0
sI14503
F0.2657205
sI14509
F0.1937102445
sI14511
F0.45
sI14512
F0.0
sI14529
F0.156905298045
sI14530
F0.0
sI14535
F0.5
sI14536
F0.0
sI14538
F0.5
sI14540
F1.0
sI14584
F0.45
sI14590
F0.45
sI14592
F0.5
sI14593
F0.0
sI14608
F0.5
sI14610
F0.5
sI14611
F0.5
sI14616
F0.505
sI14617
F0.5
sI14619
F0.55
sI14621
F0.5
sI14623
F0.5
sI14629
F0.5
sI14662
F0.47263462599102024
sI14664
F0.45
sI14665
F0.5
sI14670
F0.5088583531510775
sI14671
F0.6355000000000001
sI14673
F0.55
sI14675
F0.5
sI14677
F0.49971518236786117
sI14683
F0.405
sI14688
F0.405
sI14689
F0.5950000000000001
sI14691
F0.5
sI14693
F0.5
sI14695
F0.5
sI14697
F0.5950000000000001
sI14699
F0.5
sI14702
F0.5
sI14703
F0.5
sI14704
F0.5
sI14707
F0.5
sI14709
F0.5
sI14710
F0.5
sI14719
F0.5
sI14725
F0.5
sI14727
F0.5
sI14728
I0
sI14773
F0.405
sI14779
F0.36450000000000005
sI14781
F0.45
sI14782
F0.0
sI14824
F0.5174974816986201
sI14826
F0.5
sI14827
F0.5
sI14832
F0.5194042952215429
sI14833
F0.55
sI14835
F0.5950000000000001
sI14837
F0.5
sI14839
F0.5
sI14845
F0.5
sI14850
F0.45
sI14851
F0.5950000000000001
sI14853
F0.5
sI14855
F0.5
sI14857
F0.5
sI14859
F0.55
sI14861
F0.5
sI14864
F0.5
sI14865
F0.5
sI14866
F0.5
sI14869
F0.5
sI14871
F0.5
sI14872
F0.5
sI14881
F0.5
sI14887
F0.5
sI14889
F0.5
sI14890
I0
sI14904
F0.45
sI14905
F0.5950000000000001
sI14907
F0.5
sI14909
F0.5
sI14911
F0.5
sI14913
F0.55
sI14915
F0.45
sI14918
F0.5
sI14919
F0.5
sI14920
F0.55
sI14923
F0.36450000000000005
sI14925
F0.45
sI14926
F0.5
sI14931
F0.0
sI14936
I0
sI14938
I0
sI14942
F0.0
sI14946
I0
sI14950
F0.0
sI14952
I0
sI14959
F0.4990015293874052
sI14961
F0.45
sI14962
F0.5
sI14967
F0.5135500000000001
sI14968
F0.55
sI14970
F0.55
sI14972
F1.0
sI14974
F0.5
sI14980
F0.03589489938459262
sI14989
F0.45
sI14995
F0.05714777124906635
sI14997
F0.45
sI14998
F0.0
sI15013
F0.6304809653018247
sI15015
F0.5
sI15016
F0.704755
sI15021
F0.52615
sI15022
F0.7608515499999999
sI15024
F0.6355000000000001
sI15026
F1.0
sI15028
F0.4840629667248958
sI15034
F1.0
sI15097
F0.5
sI15103
F0.5
sI15105
F0.5
sI15106
I0
sI15151
F0.5
sI15157
F0.5
sI15159
F0.29524500000000004
sI15160
F0.0
sI15175
F0.505
sI15177
F0.5
sI15178
F0.55
sI15183
F0.5170982399470713
sI15184
F0.55
sI15186
F0.5950000000000001
sI15188
F0.36450000000000005
sI15190
F0.5
sI15196
F1.0
sI15309
F0.4972425263226964
sI15310
F0.4999546355
sI15312
F0.4954825982215
sI15314
F0.45
sI15316
F0.5
sI15318
F0.5005
sI15320
F0.505
sI15323
F0.5
sI15324
F0.4991440734899056
sI15325
F0.5
sI15328
F0.5
sI15330
F0.45
sI15331
F0.5950000000000001
sI15336
F0.5000818811342354
sI15338
F0.5
sI15341
F0.5
sI15342
F0.5
sI15343
F0.5
sI15347
F0.55
sI15351
F0.5
sI15353
F0.5
sI15354
F0.50005
sI15355
F0.5
sI15357
F0.5
sI15359
F0.5
sI15361
F0.5
sI15364
F0.500299576102456
sI15366
F0.40909124016741305
sI15367
F0.5
sI15372
F0.5
sI15373
F0.5
sI15375
F0.5
sI15377
F0.5
sI15379
F0.5
sI15385
F0.5
sI15390
F0.4995481517749011
sI15392
F0.29524500000000004
sI15395
F0.0
sI15396
F0.5027428020219918
sI15397
F0.503574018163953
sI15401
F0.5
sI15405
F0.48824990292758974
sI15407
F0.405
sI15408
F0.17433922005
sI15409
F0.9166140915016672
sI15411
F0.0
sI15415
F0.501560914942646
sI15419
F0.5
sI15423
F0.5033000254201968
sI15425
F0.45
sI15434
F0.5
sI15435
F0.5950000000000001
sI15437
F0.5
sI15440
I0
sI15441
F0.405
sI15442
F0.9507614548908194
sI15444
F0.405
sI15445
F0.49996355
sI15447
F0.0
sI15451
F0.49412346646197586
sI15453
F0.5
sI15455
F0.5
sI15458
I0
sI15459
F0.36450000000000005
sI15460
F0.4804421782890626
sI15463
F0.5
sI15466
F0.0
sI15472
F0.4995253209471569
sI15474
F0.509948687962
sI15475
F0.54018661798
sI15480
F0.4989046918670689
sI15481
F0.4931221696522743
sI15483
F0.55
sI15485
F1.0
sI15487
F0.49334371575645414
sI15493
F0.61829250175
sI15498
F0.5439421716197532
sI15499
F0.5090037158759136
sI15501
F0.55
sI15503
F1.0
sI15505
F0.45
sI15507
F0.55
sI15509
F1.0
sI15513
F0.5
sI15514
F0.48876909367183535
sI15517
F0.405
sI15519
F0.5
sI15520
F0.7608515499999999
sI15529
F0.405
sI15535
F0.45
sI15537
F0.5
sI15538
F0.0
sI15552
F0.500397895
sI15554
F0.5080500000000001
sI15557
F0.55
sI15558
F0.49959
sI15559
F0.5
sI15563
F0.55
sI15567
F0.5005
sI15569
F0.5
sI15570
F0.4995
sI15571
F0.5
sI15573
F0.495
sI15575
F0.45
sI15577
F0.5
sI15581
F0.55
sI15585
F0.5
sI15587
F0.5
sI15596
F0.5
sI15597
F0.5005
sI15599
F0.5
sI15602
F0.5
sI15603
F0.5
sI15604
F0.5
sI15606
F0.4995
sI15607
F0.5
sI15609
F0.49545822408236706
sI15611
F0.5
sI15613
F0.5
sI15615
F0.5
sI15617
F0.5
sI15620
F0.5
sI15621
F0.5
sI15622
F0.5
sI15625
F0.5
sI15627
F0.45
sI15628
F0.49533499012528387
sI15635
F0.495
sI15639
F0.49504991653905955
sI15641
F0.45
sI15650
F0.5
sI15651
F0.4905
sI15653
F0.5
sI15656
F0.0
sI15657
F0.45
sI15658
F0.49999999990435856
sI15668
F0.0
sI15680
I0
sI15684
F0.0
sI15687
F0.4909534685859231
sI15689
F0.45
sI15692
F0.0
sI15693
F0.4931227687040698
sI15694
F0.4976085154890844
sI15698
F0.5
sI15702
F0.4886479499550642
sI15704
F0.405
sI15705
F0.114383962274805
sI15706
F0.4999999999999985
sI15708
F0.0
sI15712
F0.49999999999999956
sI15714
F0.6634513060203693
sI15715
F0.5580147175784621
sI15717
F0.9166140915016672
sI15719
F1.0
sI15721
F0.49618722267934634
sI15723
F0.9898622202047773
sI15725
F1.0
sI15729
F0.5334400000000001
sI15730
F0.49999999999999933
sI15733
F0.5221
sI15735
F0.5937792564116351
sI15736
F0.7342795
sI15741
F0.9166140915016672
sI15743
F1.0
sI15747
F0.5210880947018961
sI15748
F0.4987290670851358
sI15756
F0.6355000000000001
sI15758
F1.0
sI15759
F0.505
sI15760
F0.6355000000000001
sI15762
F0.704755
sI15764
F1.0
sI15766
F0.405
sI15769
F0.4984771921085539
sI15771
F0.49958224082367086
sI15772
F0.49895943739443555
sI15777
F0.5614542086657017
sI15778
F0.499999866537189
sI15780
F0.9166140915016672
sI15782
F1.0
sI15784
F0.49999999999999956
sI15790
F0.49988800678814327
sI15796
F0.5
sI15798
F0.45
sI15799
F0.5
sI15804
F0.5
sI15805
F0.5
sI15807
F0.5
sI15809
F0.5
sI15811
F0.5
sI15817
F1.0
sI15822
F0.5
sI15823
F0.5
sI15825
F0.5
sI15827
F0.5
sI15829
F0.5
sI15831
F0.5
sI15833
F0.5
sI15836
F0.5
sI15837
F0.5
sI15838
F0.5
sI15841
F1.0
sI15843
F1.0
sI15853
F0.5
sI15859
F0.5
sI15861
F0.5
sI15862
I0
sI15876
F0.405
sI15877
F0.5
sI15879
F0.0
sI15883
F0.5
sI15885
F0.4905
sI15887
F0.45
sI15890
F0.0
sI15891
F0.405
sI15892
F0.5
sI15895
F1.0
sI15903
F0.5
sI15905
F0.45
sI15908
F0.0
sI15909
F0.5290640207814092
sI15910
F0.5950000000000001
sI15914
F0.5
sI15918
F0.48985614873500705
sI15920
F0.36450000000000005
sI15921
F1.0
sI15928
F1.0
sI15931
F0.5
sI15934
I0
sI15939
F0.45
sI15940
F0.5
sI15942
I0
sI15946
F0.405
sI15961
F0.45
sI15967
F0.44955
sI15969
F0.5
sI15970
F0.0
sI15985
F0.36450000000000005
sI15987
F0.5
sI15988
F0.5
sI15993
F0.4978305
sI15994
F0.478305
sI15996
F0.5
sI15998
F1.0
sI16000
F0.32805000000000006
sI16006
F1.0
sI16038
F0.500005
sI16040
F0.5
sI16043
F0.55
sI16044
F0.49703936097308155
sI16045
F0.4925646352856082
sI16049
F0.5
sI16053
F0.508487105118842
sI16055
F0.45
sI16056
F0.5117285816873396
sI16057
F0.5950000000000001
sI16059
F0.55
sI16061
F0.5
sI16063
F0.45
sI16067
F0.5
sI16071
F0.5091537659500001
sI16073
F0.54498736
sI16082
F0.5950000000000001
sI16083
F0.55
sI16085
F0.505
sI16088
F0.55
sI16089
F0.45
sI16090
F0.0
sI16092
F0.50005
sI16093
F0.5030285660245596
sI16095
F0.5005
sI16097
F0.5
sI16099
F0.4977458808322431
sI16101
F0.5
sI16103
F0.5
sI16106
F0.5
sI16107
F0.45
sI16108
F0.49540211235969156
sI16111
F0.5158697819860129
sI16113
F0.5
sI16114
F0.5950000000000001
sI16121
F0.5
sI16125
F0.5398239658834493
sI16127
F0.5
sI16136
F0.0
sI16137
F0.6355000000000001
sI16139
F0.45
sI16142
F0.0
sI16143
F0.604697301589082
sI16144
F0.9249526823515004
sI16154
F0.6355000000000001
sI16166
F0.5
sI16170
F0.67195
sI16172
F1.0
sI16173
F0.5
sI16175
F0.5
sI16178
I0
sI16179
F0.405
sI16180
F0.4973427949886921
sI16184
I0
sI16188
F0.0
sI16191
F0.5
sI16192
F0.6355000000000001
sI16194
F0.0
sI16198
F0.49999999998302
sI16200
F0.5573629443173045
sI16201
F0.5079373936306673
sI16203
F0.907348990557408
sI16205
F1.0
sI16207
F0.29524500000000004
sI16209
F0.9324574141163504
sI16211
F1.0
sI16215
F0.5462685712683253
sI16216
F0.4945092273309653
sI16219
F0.28734345000000006
sI16221
F0.795213245903952
sI16222
F0.8587852317595001
sI16227
F0.9556853094017375
sI16229
F1.0
sI16233
F0.405
sI16234
F0.0
sI16242
F0.6355000000000001
sI16244
F1.0
sI16245
F0.29524500000000004
sI16246
F0.0
sI16248
F0.885616037725195
sI16250
F1.0
sI16255
F0.5017560160819273
sI16257
F0.505
sI16258
F0.907348990557408
sI16263
F0.5
sI16264
F0.9166140915016672
sI16266
F0.55
sI16268
F1.0
sI16270
F0.4974047427564338
sI16276
F0.4976449311606519
sI16283
F0.5
sI16287
F0.5018499999999999
sI16289
F0.5
sI16298
F0.5
sI16299
F0.5052843348165829
sI16301
F0.5180500000000001
sI16304
F0.5950000000000001
sI16305
F0.5033187082405539
sI16306
F0.47171258240553865
sI16316
F0.5950000000000001
sI16328
F0.55
sI16332
F0.55
sI16334
F1.0
sI16335
F0.5
sI16337
F0.5
sI16340
F0.5
sI16341
F0.49919
sI16342
F0.48845135743010604
sI16346
F0.5
sI16350
F0.5
sI16352
F0.5
sI16353
F0.49967195
sI16354
F0.4689655875968292
sI16356
F0.4967195
sI16358
F0.5
sI16360
F0.3845694899146001
sI16370
F0.5
sI16382
F0.5
sI16386
F0.704755
sI16388
F1.0
sI16418
F0.5
sI16422
F0.49172681394092504
sI16424
F0.45
sI16433
F0.0
sI16434
F0.46467059469049016
sI16436
F0.29524500000000004
sI16439
F0.0
sI16440
F0.49131880790486504
sI16441
F0.4999999999999998
sI16443
F0.9166140915016672
sI16445
F1.0
sI16449
F0.5316976215948321
sI16450
F0.4807959025909748
sI16458
F0.704755
sI16460
F1.0
sI16461
F0.5088483457202918
sI16462
F0.4999996974048089
sI16464
F0.9709251314984799
sI16466
F1.0
sI16468
F0.09265100944259205
sI16476
F0.67195
sI16478
F1.0
sI16488
F0.9249526823515004
sI16490
F1.0
sI16494
F0.45
sI16495
F0.0
sI16497
F0.57189475
sI16498
F0.49999978711241744
sI16500
F0.907348990557408
sI16502
F1.0
sI16504
F0.4835011461309545
sI16506
F0.9452905054342439
sI16508
F1.0
sI16512
F0.4993878881605924
sI16513
F0.4999999999999998
sI16516
F0.49999999999999956
sI16518
F0.4804768129136143
sI16519
F0.4999999999999998
sI16524
F0.510470155
sI16525
F0.55
sI16527
F0.55
sI16529
F0.45
sI16531
F0.45
sI16533
F0.49195
sI16535
F0.45
sI16538
F0.5
sI16539
F0.45
sI16540
F0.5
sI16543
F1.0
sI16545
F1.0
sI16551
F0.55
sI16553
F0.5
sI16556
F0.5
sI16557
F0.45
sI16558
F0.0
sI16562
F0.5
sI16566
F0.5
sI16568
F0.5
sI16569
F1.0
sI16574
F1.0
sI16579
F0.5
sI16581
F0.505
sI16582
F0.55
sI16587
F0.45
sI16588
F0.5
sI16590
F0.5
sI16592
F0.5
sI16594
F0.45
sI16600
F1.0
sI16605
F0.55
sI16607
F0.5
sI16610
F0.0
sI16611
F0.5
sI16612
F0.5
sI16616
F0.0
sI16620
F0.0
sI16623
F1.0
sI16630
F1.0
sI16634
F0.5
sI16638
F0.6355000000000001
sI16640
F0.5
sI16649
F0.0
sI16652
F1.0
sI16656
F1.0
sI16659
F0.5
sI16660
F0.5
sI16662
I0
sI16666
F0.45
sI16668
F0.0
sI16673
I0
sI16675
F0.0
sI16678
F1.0
sI16687
F0.2716254
sI16689
F0.5
sI16690
F0.55
sI16695
F0.5095000000000001
sI16696
F0.5
sI16698
F0.55
sI16700
F1.0
sI16702
F0.45
sI16708
F1.0
sI16713
F0.5
sI16714
F0.0
sI16716
F0.5
sI16718
F1.0
sI16722
F0.55
sI16724
F1.0
sI16728
F0.45
sI16729
F0.0
sI16734
F1.0
sI16744
F1.0
sI16750
F1.0
sI16752
F1.0
sI16768
F0.5
sI16770
F0.45
sI16771
F0.5
sI16776
F0.5
sI16777
F0.5
sI16779
F0.5
sI16781
F0.5
sI16783
F0.4997645258240241
sI16789
F0.5
sI16794
F0.5
sI16795
F0.5
sI16797
F0.5
sI16799
F0.5
sI16801
F0.5
sI16803
F0.5
sI16805
F0.5
sI16808
F0.5
sI16809
F0.5
sI16810
F0.499437024222526
sI16813
F0.505
sI16815
F0.5
sI16816
F0.5
sI16825
F0.5
sI16831
F0.5
sI16833
F0.5
sI16834
I0
sI16848
F0.3058155000000001
sI16849
F0.44947958013996936
sI16851
F0.0
sI16855
F0.4323654995654758
sI16857
F0.4898514547698917
sI16859
F0.45
sI16862
F0.0
sI16863
F0.4820542802900926
sI16864
F0.4521518236786118
sI16867
F0.32805000000000006
sI16870
F0.0
sI16875
F0.495
sI16877
F0.5
sI16880
I0
sI16881
F0.405
sI16882
F0.40868603578173784
sI16886
F0.5
sI16890
F0.48594009178918773
sI16892
F0.405
sI16893
F0.5
sI16894
F0.5
sI16896
I0
sI16900
F0.2657205
sI16903
F0.40905
sI16906
F0.0
sI16911
F0.45
sI16912
F0.5
sI16914
F0.0
sI16918
F0.46965704506201744
sI16933
F0.45
sI16939
F0.405
sI16941
F0.5
sI16942
F0.0
sI16957
F0.5761082930187508
sI16959
F0.5095000000000001
sI16960
F0.7342795
sI16965
F0.5219182236992027
sI16966
F0.4999968852739944
sI16968
F0.9392116727047154
sI16970
F1.0
sI16972
F0.4999999942242434
sI16978
F1.0
sI17010
F0.4995
sI17011
F0.5033609077624448
sI17013
F0.495
sI17015
F0.5
sI17017
F0.5
sI17019
F0.5241212736541527
sI17021
F0.505
sI17024
F0.5
sI17025
F0.5
sI17026
F0.4987701330623857
sI17029
F0.5
sI17031
F0.45
sI17032
F0.5
sI17037
F0.5
sI17039
F0.45
sI17042
F0.5
sI17043
F0.5
sI17044
F0.5
sI17048
F0.55
sI17052
F0.5
sI17054
F0.5
sI17055
F0.5
sI17056
F0.55
sI17058
F0.5
sI17060
F0.5
sI17062
F0.5
sI17065
F0.5
sI17067
F0.5
sI17068
F0.5
sI17073
F0.5
sI17074
F0.5
sI17076
F0.5
sI17078
F1.0
sI17080
F0.49267313313761696
sI17086
F0.45
sI17091
F0.5
sI17093
F0.5
sI17096
I0
sI17097
F0.45
sI17098
F0.40590635373497175
sI17102
F0.5
sI17106
F0.4838156360906393
sI17108
F0.405
sI17109
F0.45
sI17110
F0.5
sI17112
F0.0
sI17116
F0.09265100944259205
sI17120
F0.0
sI17124
F0.0
sI17135
F0.0
sI17136
I0
sI17141
I0
sI17143
F0.0
sI17145
F0.45
sI17146
F0.4900152938740522
sI17148
F0.0
sI17152
F0.44515293874052164
sI17154
F0.55
sI17156
F1.0
sI17160
F0.49028898366187346
sI17161
F0.4992722108285347
sI17164
F0.09265100944259205
sI17167
F0.0
sI17173
F0.5220388918508757
sI17175
F0.517195
sI17176
F0.885616037725195
sI17181
F0.593569321814881
sI17182
F0.4999714921289964
sI17184
F0.7847663949999999
sI17186
F1.0
sI17188
F0.49999995470111097
sI17194
F1.0
sI17199
F0.51805
sI17200
F0.907348990557408
sI17202
F0.67195
sI17204
F1.0
sI17206
F0.4999999999992571
sI17208
F0.9324574141163504
sI17210
F1.0
sI17214
F0.4842075971557889
sI17215
F0.4999999999999998
sI17218
F1.0
sI17220
F1.0
sI17230
F0.36450000000000005
sI17236
F0.12709329141645
sI17238
F0.5
sI17239
F0.0
sI17257
F0.5
sI17263
F0.5
sI17265
F0.5
sI17266
I0
sI17281
F0.5
sI17283
F0.5
sI17284
F0.5
sI17289
F0.5
sI17290
F0.5
sI17292
F0.5
sI17294
F0.5
sI17296
F0.4964898001390208
sI17302
F1.0
sI17335
F0.405
sI17338
F0.0
sI17343
F0.45
sI17344
F0.5
sI17346
F0.0
sI17350
F0.4358916623417689
sI17361
F0.45
sI17362
F0.5
sI17364
F0.0
sI17368
F0.42858011691832093
sI17370
F0.4954382556723993
sI17372
F0.32805000000000006
sI17375
F0.0
sI17376
F0.4940475544156251
sI17377
F0.49910149485004285
sI17380
F1.0
sI17398
F0.5
sI17401
I0
sI17446
F0.5
sI17452
F0.12709329141645
sI17454
F0.29524500000000004
sI17455
F0.0
sI17500
F0.5
sI17506
F0.5
sI17508
F0.45
sI17509
F0.0
sI17524
F0.5
sI17526
F0.5
sI17527
F0.5
sI17532
F0.5
sI17533
F0.5
sI17535
F0.5
sI17537
F0.5
sI17539
F0.5
sI17545
F0.5
sI17578
F0.5
sI17580
F0.505
sI17581
F0.5
sI17586
F0.5
sI17587
F0.5
sI17589
F0.5
sI17591
F0.5
sI17593
F0.5
sI17599
F0.958149355918585
sI17604
F0.45
sI17605
F0.5
sI17607
F0.55
sI17609
F0.45
sI17611
F0.5
sI17613
F0.5
sI17615
F0.5
sI17618
F0.5
sI17619
F0.5
sI17620
F0.5
sI17623
F0.5
sI17625
F0.06078832729528464
sI17626
F0.9676945905538666
sI17635
F0.12709329141645
sI17641
F0.5
sI17643
F0.5
sI17644
F0.0
sI17689
F0.405
sI17695
F0.5
sI17697
F0.29524500000000004
sI17698
F0.0
sI17740
F0.4995
sI17742
F0.5
sI17743
F0.5
sI17748
F0.505045
sI17749
F0.5
sI17751
F0.5
sI17753
F0.5
sI17755
F0.5
sI17761
F0.5
sI17766
F0.45
sI17767
F0.5
sI17769
F0.5
sI17771
F0.5
sI17773
F0.5
sI17775
F0.55
sI17777
F0.5
sI17780
F0.5
sI17781
F0.5
sI17782
F0.5
sI17785
F0.45
sI17787
F0.5
sI17788
F0.5
sI17797
F0.5
sI17803
F0.5
sI17805
F0.5
sI17806
I0
sI17820
F0.33534
sI17821
F0.5
sI17823
F0.55
sI17825
F0.45
sI17827
F0.45
sI17829
F0.5
sI17831
F0.405
sI17834
F0.5
sI17835
F0.45
sI17836
F0.5
sI17839
F0.24394859663008078
sI17841
F0.35738190915016677
sI17842
F0.9738326183486319
sI17847
F0.0
sI17852
F0.0
sI17854
F0.0
sI17858
F0.0
sI17862
I0
sI17866
F0.0
sI17868
F0.0
sI17875
F0.5
sI17877
F0.5095000000000001
sI17878
F0.55
sI17883
F0.29524500000000004
sI17884
F0.5
sI17886
F0.55
sI17888
F0.5
sI17890
F0.5
sI17896
F0.49999999999999956
sI17905
F0.12709329141645
sI17911
F0.07343946182827908
sI17913
F0.405
sI17914
F0.0
sI17929
F0.45
sI17931
F0.9636942223011306
sI17932
F0.9887358002275304
sI17937
F0.5
sI17938
F0.5950000000000001
sI17940
F0.9452905054342439
sI17942
F1.0
sI17944
F1.0
sI17950
F0.29524500000000004
sI18013
F0.5
sI18019
F0.45
sI18021
F0.5
sI18022
F0.0
sI18067
F0.32805000000000006
sI18073
F0.5
sI18075
F0.5
sI18076
F0.0
sI18091
F0.5
sI18093
F0.5
sI18094
F0.5
sI18099
F0.45
sI18100
F0.5
sI18102
F0.5
sI18104
F0.405
sI18106
F0.5
sI18112
F1.0
sI18226
F0.404595
sI18228
F0.5
sI18229
F0.495
sI18234
F0.29524500000000004
sI18235
F0.5
sI18237
F0.5
sI18239
F0.5
sI18241
F0.5
sI18247
F0.45
sI18252
F0.4995
sI18253
F0.0
sI18255
F0.495
sI18257
F0.5
sI18261
F0.5
sI18263
F0.5
sI18266
F0.5
sI18267
F0.5
sI18268
I0
sI18273
F0.5
sI18274
F0.0
sI18283
F0.5
sI18289
F0.45
sI18291
F0.5
sI18292
I0
sI18306
F0.36450000000000005
sI18307
F0.5
sI18309
F0.5
sI18311
F0.45
sI18313
F0.36450000000000005
sI18315
F0.0
sI18320
F0.0
sI18322
I0
sI18325
F0.45
sI18327
F0.5043077351723294
sI18328
F0.9709251314984799
sI18333
F0.5
sI18335
F0.5
sI18338
F0.5
sI18339
F0.5
sI18340
F0.0
sI18344
I0
sI18348
I0
sI18351
F0.405
sI18352
F0.0
sI18354
F0.9324574141163504
sI18356
F0.23914845
sI18361
F0.3313305
sI18363
F0.45
sI18364
F0.495
sI18370
F0.0
sI18372
F0.0
sI18382
F0.48880197865661557
sI18391
F0.29524500000000004
sI18397
F0.17433922005
sI18399
F0.29524500000000004
sI18400
F0.0
sI18417
F0.45
sI18418
F0.0
sI18423
F0.5
sI18424
F0.0
sI18426
F0.5
sI18428
F1.0
sI18468
F0.499995
sI18469
F0.495
sI18471
F0.49995
sI18473
F0.5
sI18475
F0.45
sI18477
F0.5005
sI18479
F0.5
sI18482
F0.5
sI18483
F0.5
sI18484
F0.5
sI18487
F0.5
sI18489
F0.4995
sI18490
F0.495
sI18495
F0.5
sI18497
F0.5
sI18500
F0.5
sI18501
F0.5
sI18502
F0.0
sI18506
F0.5
sI18510
F0.5
sI18512
F0.5
sI18513
F0.5
sI18514
I0
sI18516
F0.5
sI18518
F0.5
sI18523
F0.5
sI18525
F0.5
sI18526
F0.5
sI18531
F0.5
sI18532
F0.5
sI18534
F0.5
sI18536
F0.5
sI18538
F0.45
sI18544
F0.41900000000000004
sI18549
F0.5
sI18551
F0.5
sI18554
F0.5
sI18555
F0.5
sI18556
F0.5
sI18560
F0.0
sI18564
F0.0
sI18567
F0.23914845
sI18568
F0.5
sI18570
F0.49998802795465247
sI18572
F0.1412147682405
sI18574
F0.45
sI18578
I0
sI18582
I0
sI18593
I0
sI18594
F0.0
sI18599
F0.0
sI18601
F0.0
sI18603
F0.45
sI18604
F0.5
sI18606
F0.5
sI18608
F0.405
sI18610
F0.45
sI18612
F0.0
sI18617
F0.0
sI18619
F0.0
sI18622
F0.48972873427812563
sI18624
F0.4999996784501411
sI18625
F0.4999999999999998
sI18631
F0.45
sI18633
F0.4931744535
sI18634
F0.45282969
sI18639
F0.5095000000000001
sI18640
F0.5
sI18642
F0.55
sI18644
F1.0
sI18646
F1.0
sI18652
F0.09265100944259205
sI18657
F0.45
sI18658
F0.0
sI18660
F0.9641051006154073
sI18662
F1.0
sI18666
F0.55
sI18668
F1.0
sI18672
F1.0
sI18678
F0.36450000000000005
sI18679
F0.0
sI18688
F0.23914845
sI18694
F0.405
sI18696
F0.2657205
sI18697
F0.0
sI18715
F0.5
sI18721
F0.5
sI18723
F0.5
sI18724
I0
sI18741
F0.45
sI18742
F0.0
sI18747
F0.5
sI18748
I0
sI18750
F0.5
sI18752
F0.5
sI18793
F0.5
sI18795
F0.5
sI18796
F0.5
sI18802
I0
sI18804
I0
sI18814
F1.0
sI18819
F0.5
sI18820
I0
sI18822
F0.5
sI18824
F0.45
sI18828
F0.0
sI18833
F0.0
sI18835
I0
sI18840
F1.0
sI18850
F0.405
sI18859
F0.0
sI18912
F0.5
sI18913
I0
sI18985
F1.0
sI18991
F1.0
sI18993
F1.0
sI19039
F1.0
sI19045
F1.0
sI19047
F1.0
sI19063
F1.0
sI19065
F1.0
sI19071
F1.0
sI19076
F1.0
sI19078
F1.0
sI19084
F1.0
sI19201
F1.0
sI19207
F1.0
sI19209
F1.0
sI19225
F1.0
sI19227
F1.0
sI19233
F1.0
sI19238
F1.0
sI19240
F1.0
sI19246
F1.0
sI19279
F1.0
sI19281
F1.0
sI19287
F1.0
sI19292
F1.0
sI19294
F1.0
sI19300
F1.0
sI19336
F1.0
sI19342
F1.0
sI19344
F1.0
sI19390
F1.0
sI19396
F1.0
sI19398
F1.0
sI19552
F1.0
sI19558
F1.0
sI19560
F1.0
s.